---
triple:          'arm64-apple-darwin'
binary-path:     client
relocations:
  - { offsetInCU: 0x3B, offset: 0x3B, size: 0x8, addend: 0x0, symName: _.str, symObjAddr: 0x1A4A0, symBinAddr: 0x100028620, symSize: 0x0 }
  - { offsetInCU: 0x6B, offset: 0x6B, size: 0x8, addend: 0x0, symName: _.str.1, symObjAddr: 0x1C320, symBinAddr: 0x10002D100, symSize: 0x0 }
  - { offsetInCU: 0x88, offset: 0x88, size: 0x8, addend: 0x0, symName: _.str.2, symObjAddr: 0x1C340, symBinAddr: 0x10002D120, symSize: 0x0 }
  - { offsetInCU: 0xA5, offset: 0xA5, size: 0x8, addend: 0x0, symName: _.str.3, symObjAddr: 0x1C360, symBinAddr: 0x10002D140, symSize: 0x0 }
  - { offsetInCU: 0xC2, offset: 0xC2, size: 0x8, addend: 0x0, symName: _.str.4, symObjAddr: 0x1C380, symBinAddr: 0x10002D160, symSize: 0x0 }
  - { offsetInCU: 0xDF, offset: 0xDF, size: 0x8, addend: 0x0, symName: _.str.5, symObjAddr: 0x1C3A0, symBinAddr: 0x10002D180, symSize: 0x0 }
  - { offsetInCU: 0xF0, offset: 0xF0, size: 0x8, addend: 0x0, symName: _.str.6, symObjAddr: 0x1C3C0, symBinAddr: 0x10002D1A0, symSize: 0x0 }
  - { offsetInCU: 0x10D, offset: 0x10D, size: 0x8, addend: 0x0, symName: _.str.7, symObjAddr: 0x1C3E0, symBinAddr: 0x10002D1C0, symSize: 0x0 }
  - { offsetInCU: 0x12A, offset: 0x12A, size: 0x8, addend: 0x0, symName: _.str.8, symObjAddr: 0x1C420, symBinAddr: 0x10002D200, symSize: 0x0 }
  - { offsetInCU: 0x147, offset: 0x147, size: 0x8, addend: 0x0, symName: _.str.9, symObjAddr: 0x1C440, symBinAddr: 0x10002D220, symSize: 0x0 }
  - { offsetInCU: 0x164, offset: 0x164, size: 0x8, addend: 0x0, symName: _.str.10, symObjAddr: 0x1C460, symBinAddr: 0x10002D240, symSize: 0x0 }
  - { offsetInCU: 0x181, offset: 0x181, size: 0x8, addend: 0x0, symName: _.str.11, symObjAddr: 0x1C480, symBinAddr: 0x10002D260, symSize: 0x0 }
  - { offsetInCU: 0x192, offset: 0x192, size: 0x8, addend: 0x0, symName: _.str.12, symObjAddr: 0x1C4A0, symBinAddr: 0x10002D280, symSize: 0x0 }
  - { offsetInCU: 0x1B0, offset: 0x1B0, size: 0x8, addend: 0x0, symName: _.str.23, symObjAddr: 0x1C4C0, symBinAddr: 0x10002D2A0, symSize: 0x0 }
  - { offsetInCU: 0xBF15, offset: 0xBF15, size: 0x8, addend: 0x0, symName: __ZNSt3__124__put_character_sequenceB8ue170006IcNS_11char_traitsIcEEEERNS_13basic_ostreamIT_T0_EES7_PKS4_m, symObjAddr: 0x154D4, symBinAddr: 0x100016620, symSize: 0x103C }
  - { offsetInCU: 0xDAAA, offset: 0xDAAA, size: 0x8, addend: 0x0, symName: __ZNSt3__1lsB8ue170006INS_11char_traitsIcEEEERNS_13basic_ostreamIcT_EES6_PKc, symObjAddr: 0x3AB8, symBinAddr: 0x100004C04, symSize: 0xD0 }
  - { offsetInCU: 0xDAF0, offset: 0xDAF0, size: 0x8, addend: 0x0, symName: __ZNSt3__14endlB8ue170006IcNS_11char_traitsIcEEEERNS_13basic_ostreamIT_T0_EES7_, symObjAddr: 0x3C90, symBinAddr: 0x100004DDC, symSize: 0x3D8 }
  - { offsetInCU: 0xE3A2, offset: 0xE3A2, size: 0x8, addend: 0x0, symName: __ZNSt3__13minB8ue170006IxEERKT_S3_S3_, symObjAddr: 0x501C, symBinAddr: 0x100006168, symSize: 0x104 }
  - { offsetInCU: 0xE3E5, offset: 0xE3E5, size: 0x8, addend: 0x0, symName: __ZNSt3__13minB8ue170006IxNS_6__lessIvvEEEERKT_S5_S5_T0_, symObjAddr: 0x5D50, symBinAddr: 0x100006E9C, symSize: 0x2C0 }
  - { offsetInCU: 0xE4BB, offset: 0xE4BB, size: 0x8, addend: 0x0, symName: __ZNSt3__119__libcpp_deallocateB8ue170006EPvmm, symObjAddr: 0x8000, symBinAddr: 0x10000914C, symSize: 0x60 }
  - { offsetInCU: 0xE520, offset: 0xE520, size: 0x8, addend: 0x0, symName: __ZNSt3__124__is_overaligned_for_newB8ue170006Em, symObjAddr: 0x8060, symBinAddr: 0x1000091AC, symSize: 0x20 }
  - { offsetInCU: 0xE54E, offset: 0xE54E, size: 0x8, addend: 0x0, symName: __ZNSt3__127__do_deallocate_handle_sizeB8ue170006IJSt11align_val_tEEEvPvmDpT_, symObjAddr: 0x8080, symBinAddr: 0x1000091CC, symSize: 0x30 }
  - { offsetInCU: 0xE5A1, offset: 0xE5A1, size: 0x8, addend: 0x0, symName: __ZNSt3__127__do_deallocate_handle_sizeB8ue170006IJEEEvPvmDpT_, symObjAddr: 0x80B0, symBinAddr: 0x1000091FC, symSize: 0x28 }
  - { offsetInCU: 0xE5DF, offset: 0xE5DF, size: 0x8, addend: 0x0, symName: __ZNSt3__124__libcpp_operator_deleteB8ue170006IJPvSt11align_val_tEEEvDpT_, symObjAddr: 0x80D8, symBinAddr: 0x100009224, symSize: 0x2C }
  - { offsetInCU: 0xE628, offset: 0xE628, size: 0x8, addend: 0x0, symName: __ZNSt3__124__libcpp_operator_deleteB8ue170006IJPvEEEvDpT_, symObjAddr: 0x8104, symBinAddr: 0x100009250, symSize: 0x24 }
  - { offsetInCU: 0xE690, offset: 0xE690, size: 0x8, addend: 0x0, symName: __ZNSt3__112__to_addressB8ue170006IKcEEPT_S3_, symObjAddr: 0x83CC, symBinAddr: 0x100009518, symSize: 0x14 }
  - { offsetInCU: 0xE6F8, offset: 0xE6F8, size: 0x8, addend: 0x0, symName: __ZNSt3__112__to_addressB8ue170006IP18FIFORequestChannelEEPT_S4_, symObjAddr: 0xA080, symBinAddr: 0x10000B1CC, symSize: 0x14 }
  - { offsetInCU: 0xE72D, offset: 0xE72D, size: 0x8, addend: 0x0, symName: __ZNSt3__118__constexpr_strlenB8ue170006EPKc, symObjAddr: 0xAAA0, symBinAddr: 0x10000BBEC, symSize: 0x24 }
  - { offsetInCU: 0xE759, offset: 0xE759, size: 0x8, addend: 0x0, symName: __ZNSt3__13maxB8ue170006ImEERKT_S3_S3_, symObjAddr: 0xDC94, symBinAddr: 0x10000EDE0, symSize: 0x104 }
  - { offsetInCU: 0xE79C, offset: 0xE79C, size: 0x8, addend: 0x0, symName: __ZNSt3__13minB8ue170006ImEERKT_S3_S3_, symObjAddr: 0xDD98, symBinAddr: 0x10000EEE4, symSize: 0x104 }
  - { offsetInCU: 0xE9C9, offset: 0xE9C9, size: 0x8, addend: 0x0, symName: __ZNSt3__13minB8ue170006ImNS_6__lessIvvEEEERKT_S5_S5_T0_, symObjAddr: 0xDFB8, symBinAddr: 0x10000F104, symSize: 0x2C0 }
  - { offsetInCU: 0xEA29, offset: 0xEA29, size: 0x8, addend: 0x0, symName: __ZNSt3__120__throw_length_errorB8ue170006EPKc, symObjAddr: 0xE534, symBinAddr: 0x10000F680, symSize: 0xB4 }
  - { offsetInCU: 0xEA53, offset: 0xEA53, size: 0x8, addend: 0x0, symName: __ZNSt3__13maxB8ue170006ImNS_6__lessIvvEEEERKT_S5_S5_T0_, symObjAddr: 0xE790, symBinAddr: 0x10000F8DC, symSize: 0x2C0 }
  - { offsetInCU: 0xEAB3, offset: 0xEAB3, size: 0x8, addend: 0x0, symName: __ZNSt3__119__allocate_at_leastB8ue170006INS_9allocatorIP18FIFORequestChannelEEEENS_19__allocation_resultINS_16allocator_traitsIT_E7pointerEEERS7_m, symObjAddr: 0xF2B0, symBinAddr: 0x1000103FC, symSize: 0x28C }
  - { offsetInCU: 0xEAF8, offset: 0xEAF8, size: 0x8, addend: 0x0, symName: __ZNSt3__117__libcpp_allocateB8ue170006Emm, symObjAddr: 0xFAEC, symBinAddr: 0x100010C38, symSize: 0x60 }
  - { offsetInCU: 0xEB52, offset: 0xEB52, size: 0x8, addend: 0x0, symName: __ZNSt3__121__libcpp_operator_newB8ue170006IJmSt11align_val_tEEEPvDpT_, symObjAddr: 0xFB4C, symBinAddr: 0x100010C98, symSize: 0x6C }
  - { offsetInCU: 0xEB9F, offset: 0xEB9F, size: 0x8, addend: 0x0, symName: __ZNSt3__121__libcpp_operator_newB8ue170006IJmEEEPvDpT_, symObjAddr: 0xFBB8, symBinAddr: 0x100010D04, symSize: 0x24 }
  - { offsetInCU: 0xEBD8, offset: 0xEBD8, size: 0x8, addend: 0x0, symName: __ZNSt3__142__uninitialized_allocator_move_if_noexceptB8ue170006INS_9allocatorIP18FIFORequestChannelEENS_16reverse_iteratorIPS3_EES7_S3_vEET1_RT_T0_SB_S8_, symObjAddr: 0xFEE8, symBinAddr: 0x100011034, symSize: 0x4A8 }
  - { offsetInCU: 0xEC62, offset: 0xEC62, size: 0x8, addend: 0x0, symName: __ZNSt3__14swapB8ue170006IPP18FIFORequestChannelEENS_9enable_ifIXaasr21is_move_constructibleIT_EE5valuesr18is_move_assignableIS5_EE5valueEvE4typeERS5_S8_, symObjAddr: 0x104C0, symBinAddr: 0x10001160C, symSize: 0x1C0 }
  - { offsetInCU: 0xECB3, offset: 0xECB3, size: 0x8, addend: 0x0, symName: __ZNSt3__14moveB8ue170006INS_16reverse_iteratorIPP18FIFORequestChannelEES5_EET0_T_S7_S6_, symObjAddr: 0x109E0, symBinAddr: 0x100011B2C, symSize: 0x4B0 }
  - { offsetInCU: 0xED1A, offset: 0xED1A, size: 0x8, addend: 0x0, symName: __ZNSt3__16__moveB8ue170006INS_17_ClassicAlgPolicyENS_16reverse_iteratorIPP18FIFORequestChannelEES6_S6_EENS_4pairIT0_T2_EES8_T1_S9_, symObjAddr: 0x10E90, symBinAddr: 0x100011FDC, symSize: 0x424 }
  - { offsetInCU: 0xED92, offset: 0xED92, size: 0x8, addend: 0x0, symName: __ZNSt3__123__dispatch_copy_or_moveB8ue170006INS_17_ClassicAlgPolicyENS_11__move_loopIS1_EENS_14__move_trivialENS_16reverse_iteratorIPP18FIFORequestChannelEES9_S9_EENS_4pairIT2_T4_EESB_T3_SC_, symObjAddr: 0x112B4, symBinAddr: 0x100012400, symSize: 0x424 }
  - { offsetInCU: 0xEE1C, offset: 0xEE1C, size: 0x8, addend: 0x0, symName: __ZNSt3__121__unwrap_and_dispatchB8ue170006INS_10__overloadINS_11__move_loopINS_17_ClassicAlgPolicyEEENS_14__move_trivialEEENS_16reverse_iteratorIPP18FIFORequestChannelEESB_SB_Li0EEENS_4pairIT0_T2_EESD_T1_SE_, symObjAddr: 0x116D8, symBinAddr: 0x100012824, symSize: 0x880 }
  - { offsetInCU: 0xEEC0, offset: 0xEEC0, size: 0x8, addend: 0x0, symName: __ZNSt3__114__unwrap_rangeB8ue170006INS_16reverse_iteratorIPP18FIFORequestChannelEES5_EENS_4pairIT0_S7_EET_S9_, symObjAddr: 0x11F58, symBinAddr: 0x1000130A4, symSize: 0x448 }
  - { offsetInCU: 0xF043, offset: 0xF043, size: 0x8, addend: 0x0, symName: __ZNSt3__113__unwrap_iterB8ue170006INS_16reverse_iteratorIPP18FIFORequestChannelEENS_18__unwrap_iter_implIS5_Lb0EEELi0EEEDTclsrT0_8__unwrapclsr3stdE7declvalIT_EEEES9_, symObjAddr: 0x127FC, symBinAddr: 0x100013948, symSize: 0x2EC }
  - { offsetInCU: 0xF08B, offset: 0xF08B, size: 0x8, addend: 0x0, symName: __ZNSt3__19make_pairB8ue170006INS_16reverse_iteratorIPP18FIFORequestChannelEES5_EENS_4pairINS_18__unwrap_ref_decayIT_E4typeENS7_IT0_E4typeEEEOS8_OSB_, symObjAddr: 0x12AE8, symBinAddr: 0x100013C34, symSize: 0x108 }
  - { offsetInCU: 0xF0DA, offset: 0xF0DA, size: 0x8, addend: 0x0, symName: __ZNSt3__114__rewrap_rangeB8ue170006INS_16reverse_iteratorIPP18FIFORequestChannelEES5_EET_S6_T0_, symObjAddr: 0x12BF0, symBinAddr: 0x100013D3C, symSize: 0x3D4 }
  - { offsetInCU: 0xF12E, offset: 0xF12E, size: 0x8, addend: 0x0, symName: __ZNSt3__113__rewrap_iterB8ue170006INS_16reverse_iteratorIPP18FIFORequestChannelEES5_NS_18__unwrap_iter_implIS5_Lb0EEEEET_S8_T0_, symObjAddr: 0x12FC4, symBinAddr: 0x100014110, symSize: 0x3E8 }
  - { offsetInCU: 0xF18B, offset: 0xF18B, size: 0x8, addend: 0x0, symName: __ZNSt3__1neB8ue170006IPP18FIFORequestChannelS3_EEbRKNS_16reverse_iteratorIT_EERKNS4_IT0_EE, symObjAddr: 0x133AC, symBinAddr: 0x1000144F8, symSize: 0x9C }
  - { offsetInCU: 0xF289, offset: 0xF289, size: 0x8, addend: 0x0, symName: __ZNSt3__116__pad_and_outputB8ue170006IcNS_11char_traitsIcEEEENS_19ostreambuf_iteratorIT_T0_EES6_PKS4_S8_S8_RNS_8ios_baseES4_, symObjAddr: 0x16614, symBinAddr: 0x100017760, symSize: 0xB88 }
  - { offsetInCU: 0xF366, offset: 0xF366, size: 0x8, addend: 0x0, symName: __ZNSt3__112__to_addressB8ue170006IcEEPT_S2_, symObjAddr: 0x18124, symBinAddr: 0x100019270, symSize: 0x14 }
  - { offsetInCU: 0xF39B, offset: 0xF39B, size: 0x8, addend: 0x0, symName: __ZNSt3__19use_facetB8ue170006INS_5ctypeIcEEEERKT_RKNS_6localeE, symObjAddr: 0x18BBC, symBinAddr: 0x100019D08, symSize: 0x188 }
  - { offsetInCU: 0xFCCA, offset: 0xFCCA, size: 0x8, addend: 0x0, symName: __ZSt28__throw_bad_array_new_lengthB8ue170006v, symObjAddr: 0xFA70, symBinAddr: 0x100010BBC, symSize: 0x7C }
  - { offsetInCU: 0x106A2, offset: 0x106A2, size: 0x8, addend: 0x0, symName: __ZNSt3__16vectorIP18FIFORequestChannelNS_9allocatorIS2_EEE26__swap_out_circular_bufferERNS_14__split_bufferIS2_RS4_EE, symObjAddr: 0xCF88, symBinAddr: 0x10000E0D4, symSize: 0x85C }
  - { offsetInCU: 0x12AF5, offset: 0x12AF5, size: 0x8, addend: 0x0, symName: _main, symObjAddr: 0x0, symBinAddr: 0x10000114C, symSize: 0x3040 }
  - { offsetInCU: 0x12DC5, offset: 0x12DC5, size: 0x8, addend: 0x0, symName: __ZNSt3__112basic_stringIcNS_11char_traitsIcEENS_9allocatorIcEEEC1B8ue170006Ev, symObjAddr: 0x3088, symBinAddr: 0x1000041D4, symSize: 0x78 }
  - { offsetInCU: 0x12DEF, offset: 0x12DEF, size: 0x8, addend: 0x0, symName: __ZNSt3__16vectorIP18FIFORequestChannelNS_9allocatorIS2_EEEC1B8ue170006Ev, symObjAddr: 0x3100, symBinAddr: 0x10000424C, symSize: 0x78 }
  - { offsetInCU: 0x12E1E, offset: 0x12E1E, size: 0x8, addend: 0x0, symName: __ZNSt3__112basic_stringIcNS_11char_traitsIcEENS_9allocatorIcEEEC1B8ue170006ILi0EEEPKc, symObjAddr: 0x3178, symBinAddr: 0x1000042C4, symSize: 0x80 }
  - { offsetInCU: 0x12E5D, offset: 0x12E5D, size: 0x8, addend: 0x0, symName: __ZNSt3__112basic_stringIcNS_11char_traitsIcEENS_9allocatorIcEEEaSB8ue170006EPKc, symObjAddr: 0x31F8, symBinAddr: 0x100004344, symSize: 0xBC }
  - { offsetInCU: 0x12E92, offset: 0x12E92, size: 0x8, addend: 0x0, symName: __ZNSt3__112basic_stringIcNS_11char_traitsIcEENS_9allocatorIcEEEaSB8ue170006EOS5_, symObjAddr: 0x32B4, symBinAddr: 0x100004400, symSize: 0x104 }
  - { offsetInCU: 0x12EC7, offset: 0x12EC7, size: 0x8, addend: 0x0, symName: __ZNKSt3__112basic_stringIcNS_11char_traitsIcEENS_9allocatorIcEEE5c_strB8ue170006Ev, symObjAddr: 0x33B8, symBinAddr: 0x100004504, symSize: 0x6C }
  - { offsetInCU: 0x12EED, offset: 0x12EED, size: 0x8, addend: 0x0, symName: __ZNSt3__16vectorIP18FIFORequestChannelNS_9allocatorIS2_EEE9push_backB8ue170006EOS2_, symObjAddr: 0x3424, symBinAddr: 0x100004570, symSize: 0x1FC }
  - { offsetInCU: 0x12F24, offset: 0x12F24, size: 0x8, addend: 0x0, symName: __ZNSt3__16vectorIP18FIFORequestChannelNS_9allocatorIS2_EEE9push_backB8ue170006ERKS2_, symObjAddr: 0x3620, symBinAddr: 0x10000476C, symSize: 0x1FC }
  - { offsetInCU: 0x12F5B, offset: 0x12F5B, size: 0x8, addend: 0x0, symName: __ZNSt3__16vectorIP18FIFORequestChannelNS_9allocatorIS2_EEE4backB8ue170006Ev, symObjAddr: 0x381C, symBinAddr: 0x100004968, symSize: 0x18C }
  - { offsetInCU: 0x12F8B, offset: 0x12F8B, size: 0x8, addend: 0x0, symName: __ZN18FIFORequestChannelC1ERKS_, symObjAddr: 0x39A8, symBinAddr: 0x100004AF4, symSize: 0x80 }
  - { offsetInCU: 0x13020, offset: 0x13020, size: 0x8, addend: 0x0, symName: __ZN7datamsgC1Eidi, symObjAddr: 0x3A28, symBinAddr: 0x100004B74, symSize: 0x90 }
  - { offsetInCU: 0x13074, offset: 0x13074, size: 0x8, addend: 0x0, symName: __ZNSt3__113basic_ostreamIcNS_11char_traitsIcEEElsB8ue170006EPFRS3_S4_E, symObjAddr: 0x3B88, symBinAddr: 0x100004CD4, symSize: 0x108 }
  - { offsetInCU: 0x13140, offset: 0x13140, size: 0x8, addend: 0x0, symName: __ZNSt3__114basic_ofstreamIcNS_11char_traitsIcEEEC1EPKcj, symObjAddr: 0x4068, symBinAddr: 0x1000051B4, symSize: 0x6A4 }
  - { offsetInCU: 0x1318F, offset: 0x1318F, size: 0x8, addend: 0x0, symName: __ZNSt3__114basic_ofstreamIcNS_11char_traitsIcEEED1Ev, symObjAddr: 0x470C, symBinAddr: 0x100005858, symSize: 0x8C }
  - { offsetInCU: 0x131BC, offset: 0x131BC, size: 0x8, addend: 0x0, symName: __ZNKSt3__112basic_stringIcNS_11char_traitsIcEENS_9allocatorIcEEE5emptyB8ue170006Ev, symObjAddr: 0x4798, symBinAddr: 0x1000058E4, symSize: 0x78 }
  - { offsetInCU: 0x131E2, offset: 0x131E2, size: 0x8, addend: 0x0, symName: __ZN7filemsgC1Exi, symObjAddr: 0x4810, symBinAddr: 0x10000595C, symSize: 0x88 }
  - { offsetInCU: 0x13228, offset: 0x13228, size: 0x8, addend: 0x0, symName: __ZNKSt3__112basic_stringIcNS_11char_traitsIcEENS_9allocatorIcEEE4sizeB8ue170006Ev, symObjAddr: 0x4898, symBinAddr: 0x1000059E4, symSize: 0x98 }
  - { offsetInCU: 0x1324E, offset: 0x1324E, size: 0x8, addend: 0x0, symName: __ZNSt3__114basic_ofstreamIcNS_11char_traitsIcEEEC1ERKNS_12basic_stringIcS2_NS_9allocatorIcEEEEj, symObjAddr: 0x4930, symBinAddr: 0x100005A7C, symSize: 0x6EC }
  - { offsetInCU: 0x13298, offset: 0x13298, size: 0x8, addend: 0x0, symName: __ZNSt3__114basic_ofstreamIcNS_11char_traitsIcEEE5closeEv, symObjAddr: 0x5120, symBinAddr: 0x10000626C, symSize: 0x388 }
  - { offsetInCU: 0x132C0, offset: 0x132C0, size: 0x8, addend: 0x0, symName: __ZNSt3__16vectorIP18FIFORequestChannelNS_9allocatorIS2_EEED1B8ue170006Ev, symObjAddr: 0x54A8, symBinAddr: 0x1000065F4, symSize: 0x78 }
  - { offsetInCU: 0x132EA, offset: 0x132EA, size: 0x8, addend: 0x0, symName: __ZN18FIFORequestChannelC2ERKS_, symObjAddr: 0x5520, symBinAddr: 0x10000666C, symSize: 0x1F0 }
  - { offsetInCU: 0x1331F, offset: 0x1331F, size: 0x8, addend: 0x0, symName: __ZN7datamsgC2Eidi, symObjAddr: 0x5710, symBinAddr: 0x10000685C, symSize: 0x20C }
  - { offsetInCU: 0x13373, offset: 0x13373, size: 0x8, addend: 0x0, symName: __ZNSt3__114basic_ofstreamIcNS_11char_traitsIcEEED2Ev, symObjAddr: 0x591C, symBinAddr: 0x100006A68, symSize: 0x1E8 }
  - { offsetInCU: 0x133AD, offset: 0x133AD, size: 0x8, addend: 0x0, symName: __ZTv0_n24_NSt3__114basic_ofstreamIcNS_11char_traitsIcEEED1Ev, symObjAddr: 0x5B04, symBinAddr: 0x100006C50, symSize: 0xB0 }
  - { offsetInCU: 0x133C4, offset: 0x133C4, size: 0x8, addend: 0x0, symName: __ZN7filemsgC2Exi, symObjAddr: 0x5BB4, symBinAddr: 0x100006D00, symSize: 0x19C }
  - { offsetInCU: 0x1341E, offset: 0x1341E, size: 0x8, addend: 0x0, symName: __ZNKSt3__16__lessIvvEclB8ue170006IxxEEbRKT_RKT0_, symObjAddr: 0x6010, symBinAddr: 0x10000715C, symSize: 0xEC }
  - { offsetInCU: 0x13472, offset: 0x13472, size: 0x8, addend: 0x0, symName: __ZNSt3__112basic_stringIcNS_11char_traitsIcEENS_9allocatorIcEEEC2B8ue170006Ev, symObjAddr: 0x60FC, symBinAddr: 0x100007248, symSize: 0x274 }
  - { offsetInCU: 0x134A2, offset: 0x134A2, size: 0x8, addend: 0x0, symName: __ZNSt3__117__compressed_pairINS_12basic_stringIcNS_11char_traitsIcEENS_9allocatorIcEEE5__repES5_EC1B8ue170006INS_18__default_init_tagESA_EEOT_OT0_, symObjAddr: 0x6370, symBinAddr: 0x1000074BC, symSize: 0x88 }
  - { offsetInCU: 0x134FA, offset: 0x134FA, size: 0x8, addend: 0x0, symName: __ZNSt3__112basic_stringIcNS_11char_traitsIcEENS_9allocatorIcEEE14__default_initB8ue170006Ev, symObjAddr: 0x6404, symBinAddr: 0x100007550, symSize: 0x2B4 }
  - { offsetInCU: 0x13521, offset: 0x13521, size: 0x8, addend: 0x0, symName: __ZNSt3__117__compressed_pairINS_12basic_stringIcNS_11char_traitsIcEENS_9allocatorIcEEE5__repES5_EC2B8ue170006INS_18__default_init_tagESA_EEOT_OT0_, symObjAddr: 0x66B8, symBinAddr: 0x100007804, symSize: 0xF4 }
  - { offsetInCU: 0x13579, offset: 0x13579, size: 0x8, addend: 0x0, symName: __ZNSt3__122__compressed_pair_elemINS_12basic_stringIcNS_11char_traitsIcEENS_9allocatorIcEEE5__repELi0ELb0EEC2B8ue170006ENS_18__default_init_tagE, symObjAddr: 0x67AC, symBinAddr: 0x1000078F8, symSize: 0x6C }
  - { offsetInCU: 0x135AE, offset: 0x135AE, size: 0x8, addend: 0x0, symName: __ZNSt3__122__compressed_pair_elemINS_9allocatorIcEELi1ELb1EEC2B8ue170006ENS_18__default_init_tagE, symObjAddr: 0x6818, symBinAddr: 0x100007964, symSize: 0x84 }
  - { offsetInCU: 0x135E3, offset: 0x135E3, size: 0x8, addend: 0x0, symName: __ZNSt3__19allocatorIcEC2B8ue170006Ev, symObjAddr: 0x689C, symBinAddr: 0x1000079E8, symSize: 0x84 }
  - { offsetInCU: 0x1360D, offset: 0x1360D, size: 0x8, addend: 0x0, symName: __ZNSt3__116__non_trivial_ifILb1ENS_9allocatorIcEEEC2B8ue170006Ev, symObjAddr: 0x6920, symBinAddr: 0x100007A6C, symSize: 0x54 }
  - { offsetInCU: 0x13637, offset: 0x13637, size: 0x8, addend: 0x0, symName: __ZNSt3__117__compressed_pairINS_12basic_stringIcNS_11char_traitsIcEENS_9allocatorIcEEE5__repES5_E5firstB8ue170006Ev, symObjAddr: 0x6974, symBinAddr: 0x100007AC0, symSize: 0x124 }
  - { offsetInCU: 0x1365D, offset: 0x1365D, size: 0x8, addend: 0x0, symName: __ZNSt3__122__compressed_pair_elemINS_12basic_stringIcNS_11char_traitsIcEENS_9allocatorIcEEE5__repELi0ELb0EE5__getB8ue170006Ev, symObjAddr: 0x6A98, symBinAddr: 0x100007BE4, symSize: 0xAC }
  - { offsetInCU: 0x13683, offset: 0x13683, size: 0x8, addend: 0x0, symName: __ZNSt3__112basic_stringIcNS_11char_traitsIcEENS_9allocatorIcEEE13__move_assignB8ue170006ERS5_NS_17integral_constantIbLb1EEE, symObjAddr: 0x6B44, symBinAddr: 0x100007C90, symSize: 0x480 }
  - { offsetInCU: 0x136C8, offset: 0x136C8, size: 0x8, addend: 0x0, symName: __ZNKSt3__112basic_stringIcNS_11char_traitsIcEENS_9allocatorIcEEE9__is_longB8ue170006Ev, symObjAddr: 0x6FC4, symBinAddr: 0x100008110, symSize: 0x1FC }
  - { offsetInCU: 0x136EE, offset: 0x136EE, size: 0x8, addend: 0x0, symName: __ZNSt3__116allocator_traitsINS_9allocatorIcEEE10deallocateB8ue170006ERS2_Pcm, symObjAddr: 0x71C0, symBinAddr: 0x10000830C, symSize: 0x34 }
  - { offsetInCU: 0x13730, offset: 0x13730, size: 0x8, addend: 0x0, symName: __ZNSt3__112basic_stringIcNS_11char_traitsIcEENS_9allocatorIcEEE7__allocB8ue170006Ev, symObjAddr: 0x71F4, symBinAddr: 0x100008340, symSize: 0xDC }
  - { offsetInCU: 0x13756, offset: 0x13756, size: 0x8, addend: 0x0, symName: __ZNSt3__112basic_stringIcNS_11char_traitsIcEENS_9allocatorIcEEE18__get_long_pointerB8ue170006Ev, symObjAddr: 0x72D0, symBinAddr: 0x10000841C, symSize: 0x208 }
  - { offsetInCU: 0x1377C, offset: 0x1377C, size: 0x8, addend: 0x0, symName: __ZNKSt3__112basic_stringIcNS_11char_traitsIcEENS_9allocatorIcEEE14__get_long_capB8ue170006Ev, symObjAddr: 0x74D8, symBinAddr: 0x100008624, symSize: 0x1D0 }
  - { offsetInCU: 0x137A2, offset: 0x137A2, size: 0x8, addend: 0x0, symName: __ZNSt3__112basic_stringIcNS_11char_traitsIcEENS_9allocatorIcEEE19__move_assign_allocB8ue170006ERS5_, symObjAddr: 0x76A8, symBinAddr: 0x1000087F4, symSize: 0xBC }
  - { offsetInCU: 0x137D7, offset: 0x137D7, size: 0x8, addend: 0x0, symName: __ZNSt3__112basic_stringIcNS_11char_traitsIcEENS_9allocatorIcEEE16__set_short_sizeB8ue170006Em, symObjAddr: 0x7764, symBinAddr: 0x1000088B0, symSize: 0x394 }
  - { offsetInCU: 0x1380C, offset: 0x1380C, size: 0x8, addend: 0x0, symName: __ZNSt3__111char_traitsIcE6assignB8ue170006ERcRKc, symObjAddr: 0x7AF8, symBinAddr: 0x100008C44, symSize: 0xF4 }
  - { offsetInCU: 0x1383D, offset: 0x1383D, size: 0x8, addend: 0x0, symName: __ZNSt3__112basic_stringIcNS_11char_traitsIcEENS_9allocatorIcEEE19__get_short_pointerB8ue170006Ev, symObjAddr: 0x7BEC, symBinAddr: 0x100008D38, symSize: 0x1CC }
  - { offsetInCU: 0x13863, offset: 0x13863, size: 0x8, addend: 0x0, symName: __ZNKSt3__117__compressed_pairINS_12basic_stringIcNS_11char_traitsIcEENS_9allocatorIcEEE5__repES5_E5firstB8ue170006Ev, symObjAddr: 0x7DB8, symBinAddr: 0x100008F04, symSize: 0x124 }
  - { offsetInCU: 0x13889, offset: 0x13889, size: 0x8, addend: 0x0, symName: __ZNKSt3__122__compressed_pair_elemINS_12basic_stringIcNS_11char_traitsIcEENS_9allocatorIcEEE5__repELi0ELb0EE5__getB8ue170006Ev, symObjAddr: 0x7EDC, symBinAddr: 0x100009028, symSize: 0xAC }
  - { offsetInCU: 0x138AF, offset: 0x138AF, size: 0x8, addend: 0x0, symName: __ZNSt3__19allocatorIcE10deallocateB8ue170006EPcm, symObjAddr: 0x7F88, symBinAddr: 0x1000090D4, symSize: 0x78 }
  - { offsetInCU: 0x138F1, offset: 0x138F1, size: 0x8, addend: 0x0, symName: __ZNSt3__117__compressed_pairINS_12basic_stringIcNS_11char_traitsIcEENS_9allocatorIcEEE5__repES5_E6secondB8ue170006Ev, symObjAddr: 0x8128, symBinAddr: 0x100009274, symSize: 0x108 }
  - { offsetInCU: 0x13917, offset: 0x13917, size: 0x8, addend: 0x0, symName: __ZNSt3__122__compressed_pair_elemINS_9allocatorIcEELi1ELb1EE5__getB8ue170006Ev, symObjAddr: 0x8230, symBinAddr: 0x10000937C, symSize: 0x74 }
  - { offsetInCU: 0x1393D, offset: 0x1393D, size: 0x8, addend: 0x0, symName: __ZNSt3__112basic_stringIcNS_11char_traitsIcEENS_9allocatorIcEEE19__move_assign_allocB8ue170006ERS5_NS_17integral_constantIbLb1EEE, symObjAddr: 0x82A4, symBinAddr: 0x1000093F0, symSize: 0xA4 }
  - { offsetInCU: 0x1397D, offset: 0x1397D, size: 0x8, addend: 0x0, symName: __ZNSt3__114pointer_traitsIPcE10pointer_toB8ue170006ERc, symObjAddr: 0x8348, symBinAddr: 0x100009494, symSize: 0x14 }
  - { offsetInCU: 0x139A0, offset: 0x139A0, size: 0x8, addend: 0x0, symName: __ZNKSt3__112basic_stringIcNS_11char_traitsIcEENS_9allocatorIcEEE4dataB8ue170006Ev, symObjAddr: 0x835C, symBinAddr: 0x1000094A8, symSize: 0x70 }
  - { offsetInCU: 0x139C6, offset: 0x139C6, size: 0x8, addend: 0x0, symName: __ZNKSt3__112basic_stringIcNS_11char_traitsIcEENS_9allocatorIcEEE13__get_pointerB8ue170006Ev, symObjAddr: 0x83E0, symBinAddr: 0x10000952C, symSize: 0x98 }
  - { offsetInCU: 0x139EC, offset: 0x139EC, size: 0x8, addend: 0x0, symName: __ZNKSt3__112basic_stringIcNS_11char_traitsIcEENS_9allocatorIcEEE18__get_long_pointerB8ue170006Ev, symObjAddr: 0x8478, symBinAddr: 0x1000095C4, symSize: 0x208 }
  - { offsetInCU: 0x13A12, offset: 0x13A12, size: 0x8, addend: 0x0, symName: __ZNKSt3__112basic_stringIcNS_11char_traitsIcEENS_9allocatorIcEEE19__get_short_pointerB8ue170006Ev, symObjAddr: 0x8680, symBinAddr: 0x1000097CC, symSize: 0x1CC }
  - { offsetInCU: 0x13A38, offset: 0x13A38, size: 0x8, addend: 0x0, symName: __ZNSt3__114pointer_traitsIPKcE10pointer_toB8ue170006ERS1_, symObjAddr: 0x884C, symBinAddr: 0x100009998, symSize: 0x14 }
  - { offsetInCU: 0x13A5B, offset: 0x13A5B, size: 0x8, addend: 0x0, symName: __ZNSt3__16vectorIP18FIFORequestChannelNS_9allocatorIS2_EEEC2B8ue170006Ev, symObjAddr: 0x8860, symBinAddr: 0x1000099AC, symSize: 0x340 }
  - { offsetInCU: 0x13A8B, offset: 0x13A8B, size: 0x8, addend: 0x0, symName: __ZNSt3__117__compressed_pairIPP18FIFORequestChannelNS_9allocatorIS2_EEEC1B8ue170006IDnNS_18__default_init_tagEEEOT_OT0_, symObjAddr: 0x8BA0, symBinAddr: 0x100009CEC, symSize: 0x88 }
  - { offsetInCU: 0x13AE3, offset: 0x13AE3, size: 0x8, addend: 0x0, symName: __ZNSt3__117__compressed_pairIPP18FIFORequestChannelNS_9allocatorIS2_EEEC2B8ue170006IDnNS_18__default_init_tagEEEOT_OT0_, symObjAddr: 0x8C28, symBinAddr: 0x100009D74, symSize: 0x140 }
  - { offsetInCU: 0x13B3B, offset: 0x13B3B, size: 0x8, addend: 0x0, symName: __ZNSt3__122__compressed_pair_elemIPP18FIFORequestChannelLi0ELb0EEC2B8ue170006IDnvEEOT_, symObjAddr: 0x8D68, symBinAddr: 0x100009EB4, symSize: 0xBC }
  - { offsetInCU: 0x13B7D, offset: 0x13B7D, size: 0x8, addend: 0x0, symName: __ZNSt3__122__compressed_pair_elemINS_9allocatorIP18FIFORequestChannelEELi1ELb1EEC2B8ue170006ENS_18__default_init_tagE, symObjAddr: 0x8E24, symBinAddr: 0x100009F70, symSize: 0x84 }
  - { offsetInCU: 0x13BB2, offset: 0x13BB2, size: 0x8, addend: 0x0, symName: __ZNSt3__19allocatorIP18FIFORequestChannelEC2B8ue170006Ev, symObjAddr: 0x8EA8, symBinAddr: 0x100009FF4, symSize: 0x84 }
  - { offsetInCU: 0x13BDC, offset: 0x13BDC, size: 0x8, addend: 0x0, symName: __ZNSt3__116__non_trivial_ifILb1ENS_9allocatorIP18FIFORequestChannelEEEC2B8ue170006Ev, symObjAddr: 0x8F2C, symBinAddr: 0x10000A078, symSize: 0x54 }
  - { offsetInCU: 0x13C06, offset: 0x13C06, size: 0x8, addend: 0x0, symName: __ZNSt3__16vectorIP18FIFORequestChannelNS_9allocatorIS2_EEED2B8ue170006Ev, symObjAddr: 0x8F80, symBinAddr: 0x10000A0CC, symSize: 0x298 }
  - { offsetInCU: 0x13C31, offset: 0x13C31, size: 0x8, addend: 0x0, symName: __ZNSt3__16vectorIP18FIFORequestChannelNS_9allocatorIS2_EEE16__destroy_vectorC1B8ue170006ERS5_, symObjAddr: 0x9218, symBinAddr: 0x10000A364, symSize: 0x80 }
  - { offsetInCU: 0x13C6A, offset: 0x13C6A, size: 0x8, addend: 0x0, symName: __ZNSt3__16vectorIP18FIFORequestChannelNS_9allocatorIS2_EEE16__destroy_vectorclB8ue170006Ev, symObjAddr: 0x9298, symBinAddr: 0x10000A3E4, symSize: 0x43C }
  - { offsetInCU: 0x13C90, offset: 0x13C90, size: 0x8, addend: 0x0, symName: __ZNSt3__16vectorIP18FIFORequestChannelNS_9allocatorIS2_EEE16__destroy_vectorC2B8ue170006ERS5_, symObjAddr: 0x96D4, symBinAddr: 0x10000A820, symSize: 0x108 }
  - { offsetInCU: 0x13CC9, offset: 0x13CC9, size: 0x8, addend: 0x0, symName: __ZNSt3__16vectorIP18FIFORequestChannelNS_9allocatorIS2_EEE7__clearB8ue170006Ev, symObjAddr: 0x97DC, symBinAddr: 0x10000A928, symSize: 0xB0 }
  - { offsetInCU: 0x13CEF, offset: 0x13CEF, size: 0x8, addend: 0x0, symName: __ZNKSt3__16vectorIP18FIFORequestChannelNS_9allocatorIS2_EEE17__annotate_deleteB8ue170006Ev, symObjAddr: 0x988C, symBinAddr: 0x10000A9D8, symSize: 0x370 }
  - { offsetInCU: 0x13D15, offset: 0x13D15, size: 0x8, addend: 0x0, symName: __ZNSt3__116allocator_traitsINS_9allocatorIP18FIFORequestChannelEEE10deallocateB8ue170006ERS4_PS3_m, symObjAddr: 0x9BFC, symBinAddr: 0x10000AD48, symSize: 0x34 }
  - { offsetInCU: 0x13D57, offset: 0x13D57, size: 0x8, addend: 0x0, symName: __ZNSt3__16vectorIP18FIFORequestChannelNS_9allocatorIS2_EEE7__allocB8ue170006Ev, symObjAddr: 0x9C30, symBinAddr: 0x10000AD7C, symSize: 0xE4 }
  - { offsetInCU: 0x13D7D, offset: 0x13D7D, size: 0x8, addend: 0x0, symName: __ZNKSt3__16vectorIP18FIFORequestChannelNS_9allocatorIS2_EEE8capacityB8ue170006Ev, symObjAddr: 0x9D14, symBinAddr: 0x10000AE60, symSize: 0x144 }
  - { offsetInCU: 0x13DA3, offset: 0x13DA3, size: 0x8, addend: 0x0, symName: __ZNSt3__16vectorIP18FIFORequestChannelNS_9allocatorIS2_EEE22__base_destruct_at_endB8ue170006EPS2_, symObjAddr: 0x9E58, symBinAddr: 0x10000AFA4, symSize: 0x1FC }
  - { offsetInCU: 0x13DE7, offset: 0x13DE7, size: 0x8, addend: 0x0, symName: __ZNSt3__116allocator_traitsINS_9allocatorIP18FIFORequestChannelEEE7destroyB8ue170006IS3_vEEvRS4_PT_, symObjAddr: 0xA054, symBinAddr: 0x10000B1A0, symSize: 0x2C }
  - { offsetInCU: 0x13E24, offset: 0x13E24, size: 0x8, addend: 0x0, symName: __ZNSt3__19allocatorIP18FIFORequestChannelE7destroyB8ue170006EPS2_, symObjAddr: 0xA094, symBinAddr: 0x10000B1E0, symSize: 0x4C }
  - { offsetInCU: 0x13E58, offset: 0x13E58, size: 0x8, addend: 0x0, symName: __ZNKSt3__16vectorIP18FIFORequestChannelNS_9allocatorIS2_EEE31__annotate_contiguous_containerEPKvS7_S7_S7_, symObjAddr: 0xA0E0, symBinAddr: 0x10000B22C, symSize: 0x9C }
  - { offsetInCU: 0x13EBA, offset: 0x13EBA, size: 0x8, addend: 0x0, symName: __ZNKSt3__16vectorIP18FIFORequestChannelNS_9allocatorIS2_EEE4dataB8ue170006Ev, symObjAddr: 0xA17C, symBinAddr: 0x10000B2C8, symSize: 0xB0 }
  - { offsetInCU: 0x13EE0, offset: 0x13EE0, size: 0x8, addend: 0x0, symName: __ZNKSt3__16vectorIP18FIFORequestChannelNS_9allocatorIS2_EEE4sizeB8ue170006Ev, symObjAddr: 0xA22C, symBinAddr: 0x10000B378, symSize: 0xF8 }
  - { offsetInCU: 0x13F06, offset: 0x13F06, size: 0x8, addend: 0x0, symName: __ZNSt3__19allocatorIP18FIFORequestChannelE10deallocateB8ue170006EPS2_m, symObjAddr: 0xA324, symBinAddr: 0x10000B470, symSize: 0x78 }
  - { offsetInCU: 0x13F48, offset: 0x13F48, size: 0x8, addend: 0x0, symName: __ZNSt3__117__compressed_pairIPP18FIFORequestChannelNS_9allocatorIS2_EEE6secondB8ue170006Ev, symObjAddr: 0xA39C, symBinAddr: 0x10000B4E8, symSize: 0x108 }
  - { offsetInCU: 0x13F6E, offset: 0x13F6E, size: 0x8, addend: 0x0, symName: __ZNSt3__122__compressed_pair_elemINS_9allocatorIP18FIFORequestChannelEELi1ELb1EE5__getB8ue170006Ev, symObjAddr: 0xA4A4, symBinAddr: 0x10000B5F0, symSize: 0x74 }
  - { offsetInCU: 0x13F94, offset: 0x13F94, size: 0x8, addend: 0x0, symName: __ZNKSt3__16vectorIP18FIFORequestChannelNS_9allocatorIS2_EEE9__end_capB8ue170006Ev, symObjAddr: 0xA518, symBinAddr: 0x10000B664, symSize: 0x100 }
  - { offsetInCU: 0x13FBA, offset: 0x13FBA, size: 0x8, addend: 0x0, symName: __ZNKSt3__117__compressed_pairIPP18FIFORequestChannelNS_9allocatorIS2_EEE5firstB8ue170006Ev, symObjAddr: 0xA618, symBinAddr: 0x10000B764, symSize: 0x124 }
  - { offsetInCU: 0x13FE0, offset: 0x13FE0, size: 0x8, addend: 0x0, symName: __ZNKSt3__122__compressed_pair_elemIPP18FIFORequestChannelLi0ELb0EE5__getB8ue170006Ev, symObjAddr: 0xA73C, symBinAddr: 0x10000B888, symSize: 0xAC }
  - { offsetInCU: 0x14006, offset: 0x14006, size: 0x8, addend: 0x0, symName: __ZNSt3__112basic_stringIcNS_11char_traitsIcEENS_9allocatorIcEEEC2B8ue170006ILi0EEEPKc, symObjAddr: 0xA7E8, symBinAddr: 0x10000B934, symSize: 0x278 }
  - { offsetInCU: 0x14047, offset: 0x14047, size: 0x8, addend: 0x0, symName: __ZNSt3__111char_traitsIcE6lengthB8ue170006EPKc, symObjAddr: 0xAA60, symBinAddr: 0x10000BBAC, symSize: 0x40 }
  - { offsetInCU: 0x1406A, offset: 0x1406A, size: 0x8, addend: 0x0, symName: __ZNSt3__16vectorIP18FIFORequestChannelNS_9allocatorIS2_EEE9__end_capB8ue170006Ev, symObjAddr: 0xAAC4, symBinAddr: 0x10000BC10, symSize: 0x100 }
  - { offsetInCU: 0x14095, offset: 0x14095, size: 0x8, addend: 0x0, symName: __ZNSt3__16vectorIP18FIFORequestChannelNS_9allocatorIS2_EEE22__construct_one_at_endB8ue170006IJS2_EEEvDpOT_, symObjAddr: 0xABC4, symBinAddr: 0x10000BD10, symSize: 0x550 }
  - { offsetInCU: 0x140EA, offset: 0x140EA, size: 0x8, addend: 0x0, symName: __ZNSt3__16vectorIP18FIFORequestChannelNS_9allocatorIS2_EEE21__push_back_slow_pathIS2_EEvOT_, symObjAddr: 0xB114, symBinAddr: 0x10000C260, symSize: 0x5B0 }
  - { offsetInCU: 0x1414F, offset: 0x1414F, size: 0x8, addend: 0x0, symName: __ZNSt3__117__compressed_pairIPP18FIFORequestChannelNS_9allocatorIS2_EEE5firstB8ue170006Ev, symObjAddr: 0xB6C4, symBinAddr: 0x10000C810, symSize: 0x124 }
  - { offsetInCU: 0x14175, offset: 0x14175, size: 0x8, addend: 0x0, symName: __ZNSt3__122__compressed_pair_elemIPP18FIFORequestChannelLi0ELb0EE5__getB8ue170006Ev, symObjAddr: 0xB7E8, symBinAddr: 0x10000C934, symSize: 0xAC }
  - { offsetInCU: 0x141B4, offset: 0x141B4, size: 0x8, addend: 0x0, symName: __ZNSt3__16vectorIP18FIFORequestChannelNS_9allocatorIS2_EEE21_ConstructTransactionC1B8ue170006ERS5_m, symObjAddr: 0xB894, symBinAddr: 0x10000C9E0, symSize: 0x88 }
  - { offsetInCU: 0x141FC, offset: 0x141FC, size: 0x8, addend: 0x0, symName: __ZNSt3__116allocator_traitsINS_9allocatorIP18FIFORequestChannelEEE9constructB8ue170006IS3_JS3_EvEEvRS4_PT_DpOT0_, symObjAddr: 0xB91C, symBinAddr: 0x10000CA68, symSize: 0x8C }
  - { offsetInCU: 0x14253, offset: 0x14253, size: 0x8, addend: 0x0, symName: __ZNSt3__16vectorIP18FIFORequestChannelNS_9allocatorIS2_EEE21_ConstructTransactionD1B8ue170006Ev, symObjAddr: 0xB9A8, symBinAddr: 0x10000CAF4, symSize: 0x78 }
  - { offsetInCU: 0x1427D, offset: 0x1427D, size: 0x8, addend: 0x0, symName: __ZNSt3__16vectorIP18FIFORequestChannelNS_9allocatorIS2_EEE21_ConstructTransactionC2B8ue170006ERS5_m, symObjAddr: 0xBA20, symBinAddr: 0x10000CB6C, symSize: 0x3D8 }
  - { offsetInCU: 0x142C5, offset: 0x142C5, size: 0x8, addend: 0x0, symName: __ZNKSt3__16vectorIP18FIFORequestChannelNS_9allocatorIS2_EEE19__annotate_increaseB8ue170006Em, symObjAddr: 0xBDF8, symBinAddr: 0x10000CF44, symSize: 0x44C }
  - { offsetInCU: 0x142FA, offset: 0x142FA, size: 0x8, addend: 0x0, symName: __ZNSt3__19allocatorIP18FIFORequestChannelE9constructB8ue170006IS2_JS2_EEEvPT_DpOT0_, symObjAddr: 0xC244, symBinAddr: 0x10000D390, symSize: 0x168 }
  - { offsetInCU: 0x14350, offset: 0x14350, size: 0x8, addend: 0x0, symName: __ZNSt3__16vectorIP18FIFORequestChannelNS_9allocatorIS2_EEE21_ConstructTransactionD2B8ue170006Ev, symObjAddr: 0xC3AC, symBinAddr: 0x10000D4F8, symSize: 0x390 }
  - { offsetInCU: 0x1437A, offset: 0x1437A, size: 0x8, addend: 0x0, symName: __ZNKSt3__16vectorIP18FIFORequestChannelNS_9allocatorIS2_EEE17__annotate_shrinkB8ue170006Em, symObjAddr: 0xC73C, symBinAddr: 0x10000D888, symSize: 0x360 }
  - { offsetInCU: 0x143AF, offset: 0x143AF, size: 0x8, addend: 0x0, symName: __ZNKSt3__16vectorIP18FIFORequestChannelNS_9allocatorIS2_EEE11__recommendB8ue170006Em, symObjAddr: 0xCA9C, symBinAddr: 0x10000DBE8, symSize: 0x45C }
  - { offsetInCU: 0x1440B, offset: 0x1440B, size: 0x8, addend: 0x0, symName: __ZNSt3__114__split_bufferIP18FIFORequestChannelRNS_9allocatorIS2_EEEC1EmmS5_, symObjAddr: 0xCEF8, symBinAddr: 0x10000E044, symSize: 0x90 }
  - { offsetInCU: 0x14461, offset: 0x14461, size: 0x8, addend: 0x0, symName: __ZNSt3__114__split_bufferIP18FIFORequestChannelRNS_9allocatorIS2_EEED1Ev, symObjAddr: 0xD7E4, symBinAddr: 0x10000E930, symSize: 0x78 }
  - { offsetInCU: 0x1448D, offset: 0x1448D, size: 0x8, addend: 0x0, symName: __ZNKSt3__16vectorIP18FIFORequestChannelNS_9allocatorIS2_EEE8max_sizeEv, symObjAddr: 0xD85C, symBinAddr: 0x10000E9A8, symSize: 0x3B8 }
  - { offsetInCU: 0x144B6, offset: 0x144B6, size: 0x8, addend: 0x0, symName: __ZNKSt3__16vectorIP18FIFORequestChannelNS_9allocatorIS2_EEE20__throw_length_errorB8ue170006Ev, symObjAddr: 0xDC14, symBinAddr: 0x10000ED60, symSize: 0x80 }
  - { offsetInCU: 0x144E6, offset: 0x144E6, size: 0x8, addend: 0x0, symName: __ZNSt3__116allocator_traitsINS_9allocatorIP18FIFORequestChannelEEE8max_sizeB8ue170006IS4_vEEmRKS4_, symObjAddr: 0xDE9C, symBinAddr: 0x10000EFE8, symSize: 0x24 }
  - { offsetInCU: 0x14514, offset: 0x14514, size: 0x8, addend: 0x0, symName: __ZNKSt3__16vectorIP18FIFORequestChannelNS_9allocatorIS2_EEE7__allocB8ue170006Ev, symObjAddr: 0xDEC0, symBinAddr: 0x10000F00C, symSize: 0xE4 }
  - { offsetInCU: 0x1453A, offset: 0x1453A, size: 0x8, addend: 0x0, symName: __ZNSt3__114numeric_limitsIlE3maxB8ue170006Ev, symObjAddr: 0xDFA4, symBinAddr: 0x10000F0F0, symSize: 0x14 }
  - { offsetInCU: 0x14558, offset: 0x14558, size: 0x8, addend: 0x0, symName: __ZNKSt3__16__lessIvvEclB8ue170006ImmEEbRKT_RKT0_, symObjAddr: 0xE278, symBinAddr: 0x10000F3C4, symSize: 0xEC }
  - { offsetInCU: 0x145AC, offset: 0x145AC, size: 0x8, addend: 0x0, symName: __ZNKSt3__19allocatorIP18FIFORequestChannelE8max_sizeB8ue170006Ev, symObjAddr: 0xE364, symBinAddr: 0x10000F4B0, symSize: 0x4C }
  - { offsetInCU: 0x145D2, offset: 0x145D2, size: 0x8, addend: 0x0, symName: __ZNKSt3__117__compressed_pairIPP18FIFORequestChannelNS_9allocatorIS2_EEE6secondB8ue170006Ev, symObjAddr: 0xE3B0, symBinAddr: 0x10000F4FC, symSize: 0x108 }
  - { offsetInCU: 0x145F8, offset: 0x145F8, size: 0x8, addend: 0x0, symName: __ZNKSt3__122__compressed_pair_elemINS_9allocatorIP18FIFORequestChannelEELi1ELb1EE5__getB8ue170006Ev, symObjAddr: 0xE4B8, symBinAddr: 0x10000F604, symSize: 0x74 }
  - { offsetInCU: 0x1461E, offset: 0x1461E, size: 0x8, addend: 0x0, symName: __ZNSt3__123__libcpp_numeric_limitsIlLb1EE3maxB8ue170006Ev, symObjAddr: 0xE52C, symBinAddr: 0x10000F678, symSize: 0x8 }
  - { offsetInCU: 0x14632, offset: 0x14632, size: 0x8, addend: 0x0, symName: __ZNSt12length_errorC1B8ue170006EPKc, symObjAddr: 0xE5E8, symBinAddr: 0x10000F734, symSize: 0x80 }
  - { offsetInCU: 0x1466A, offset: 0x1466A, size: 0x8, addend: 0x0, symName: __ZNSt12length_errorC2B8ue170006EPKc, symObjAddr: 0xE668, symBinAddr: 0x10000F7B4, symSize: 0x128 }
  - { offsetInCU: 0x146A2, offset: 0x146A2, size: 0x8, addend: 0x0, symName: __ZNSt3__114__split_bufferIP18FIFORequestChannelRNS_9allocatorIS2_EEEC2EmmS5_, symObjAddr: 0xEA50, symBinAddr: 0x10000FB9C, symSize: 0x7D8 }
  - { offsetInCU: 0x1471D, offset: 0x1471D, size: 0x8, addend: 0x0, symName: __ZNSt3__117__compressed_pairIPP18FIFORequestChannelRNS_9allocatorIS2_EEEC1B8ue170006IDnS6_EEOT_OT0_, symObjAddr: 0xF228, symBinAddr: 0x100010374, symSize: 0x88 }
  - { offsetInCU: 0x14775, offset: 0x14775, size: 0x8, addend: 0x0, symName: __ZNSt3__114__split_bufferIP18FIFORequestChannelRNS_9allocatorIS2_EEE7__allocB8ue170006Ev, symObjAddr: 0xF53C, symBinAddr: 0x100010688, symSize: 0xE4 }
  - { offsetInCU: 0x1479B, offset: 0x1479B, size: 0x8, addend: 0x0, symName: __ZNSt3__114__split_bufferIP18FIFORequestChannelRNS_9allocatorIS2_EEE9__end_capB8ue170006Ev, symObjAddr: 0xF620, symBinAddr: 0x10001076C, symSize: 0x100 }
  - { offsetInCU: 0x147C1, offset: 0x147C1, size: 0x8, addend: 0x0, symName: __ZNSt3__117__compressed_pairIPP18FIFORequestChannelRNS_9allocatorIS2_EEEC2B8ue170006IDnS6_EEOT_OT0_, symObjAddr: 0xF720, symBinAddr: 0x10001086C, symSize: 0x198 }
  - { offsetInCU: 0x14819, offset: 0x14819, size: 0x8, addend: 0x0, symName: __ZNSt3__122__compressed_pair_elemIRNS_9allocatorIP18FIFORequestChannelEELi1ELb0EEC2B8ue170006IS5_vEEOT_, symObjAddr: 0xF8B8, symBinAddr: 0x100010A04, symSize: 0xEC }
  - { offsetInCU: 0x1485B, offset: 0x1485B, size: 0x8, addend: 0x0, symName: __ZNSt3__19allocatorIP18FIFORequestChannelE8allocateB8ue170006Em, symObjAddr: 0xF9A4, symBinAddr: 0x100010AF0, symSize: 0xCC }
  - { offsetInCU: 0x1488F, offset: 0x1488F, size: 0x8, addend: 0x0, symName: __ZNSt3__117__compressed_pairIPP18FIFORequestChannelRNS_9allocatorIS2_EEE6secondB8ue170006Ev, symObjAddr: 0xFBDC, symBinAddr: 0x100010D28, symSize: 0x110 }
  - { offsetInCU: 0x148B5, offset: 0x148B5, size: 0x8, addend: 0x0, symName: __ZNSt3__122__compressed_pair_elemIRNS_9allocatorIP18FIFORequestChannelEELi1ELb0EE5__getB8ue170006Ev, symObjAddr: 0xFCEC, symBinAddr: 0x100010E38, symSize: 0xD8 }
  - { offsetInCU: 0x148DB, offset: 0x148DB, size: 0x8, addend: 0x0, symName: __ZNSt3__117__compressed_pairIPP18FIFORequestChannelRNS_9allocatorIS2_EEE5firstB8ue170006Ev, symObjAddr: 0xFDC4, symBinAddr: 0x100010F10, symSize: 0x124 }
  - { offsetInCU: 0x14901, offset: 0x14901, size: 0x8, addend: 0x0, symName: __ZNSt3__116reverse_iteratorIPP18FIFORequestChannelEC1B8ue170006ES3_, symObjAddr: 0x10390, symBinAddr: 0x1000114DC, symSize: 0x80 }
  - { offsetInCU: 0x14939, offset: 0x14939, size: 0x8, addend: 0x0, symName: __ZNKSt3__116reverse_iteratorIPP18FIFORequestChannelE4baseB8ue170006Ev, symObjAddr: 0x10410, symBinAddr: 0x10001155C, symSize: 0xB0 }
  - { offsetInCU: 0x1495F, offset: 0x1495F, size: 0x8, addend: 0x0, symName: __ZNKSt3__16vectorIP18FIFORequestChannelNS_9allocatorIS2_EEE14__annotate_newB8ue170006Em, symObjAddr: 0x10680, symBinAddr: 0x1000117CC, symSize: 0x360 }
  - { offsetInCU: 0x149B7, offset: 0x149B7, size: 0x8, addend: 0x0, symName: __ZNKSt3__111__move_loopINS_17_ClassicAlgPolicyEEclB8ue170006INS_16reverse_iteratorIPP18FIFORequestChannelEES8_S8_EENS_4pairIT_T1_EESA_T0_SB_, symObjAddr: 0x123A0, symBinAddr: 0x1000134EC, symSize: 0x45C }
  - { offsetInCU: 0x14A2F, offset: 0x14A2F, size: 0x8, addend: 0x0, symName: __ZNSt3__18_IterOpsINS_17_ClassicAlgPolicyEE11__iter_moveB8ue170006IRNS_16reverse_iteratorIPP18FIFORequestChannelEEEENS_9enable_ifIXsr12is_referenceIDTdeclsr3stdE7declvalIRT_EEEEE5valueEDTclsr3stdE4movedeclsr3stdE7declvalISC_EEEEE4typeEOSB_, symObjAddr: 0x13448, symBinAddr: 0x100014594, symSize: 0xB8 }
  - { offsetInCU: 0x14A5B, offset: 0x14A5B, size: 0x8, addend: 0x0, symName: __ZNKSt3__116reverse_iteratorIPP18FIFORequestChannelEdeB8ue170006Ev, symObjAddr: 0x13500, symBinAddr: 0x10001464C, symSize: 0x184 }
  - { offsetInCU: 0x14A8F, offset: 0x14A8F, size: 0x8, addend: 0x0, symName: __ZNSt3__116reverse_iteratorIPP18FIFORequestChannelEppB8ue170006Ev, symObjAddr: 0x13684, symBinAddr: 0x1000147D0, symSize: 0x1B0 }
  - { offsetInCU: 0x14AB5, offset: 0x14AB5, size: 0x8, addend: 0x0, symName: __ZNSt3__18_IterOpsINS_17_ClassicAlgPolicyEE25__validate_iter_referenceB8ue170006IRNS_16reverse_iteratorIPP18FIFORequestChannelEEEEvv, symObjAddr: 0x13834, symBinAddr: 0x100014980, symSize: 0x4 }
  - { offsetInCU: 0x14AD3, offset: 0x14AD3, size: 0x8, addend: 0x0, symName: __ZNSt3__118__unwrap_iter_implINS_16reverse_iteratorIPP18FIFORequestChannelEELb0EE8__unwrapB8ue170006ES5_, symObjAddr: 0x13838, symBinAddr: 0x100014984, symSize: 0x274 }
  - { offsetInCU: 0x14AFF, offset: 0x14AFF, size: 0x8, addend: 0x0, symName: __ZNSt3__14pairINS_16reverse_iteratorIPP18FIFORequestChannelEES5_EC1B8ue170006IS5_S5_LPv0EEEOT_OT0_, symObjAddr: 0x13AAC, symBinAddr: 0x100014BF8, symSize: 0x88 }
  - { offsetInCU: 0x14B5D, offset: 0x14B5D, size: 0x8, addend: 0x0, symName: __ZNSt3__14pairINS_16reverse_iteratorIPP18FIFORequestChannelEES5_EC2B8ue170006IS5_S5_LPv0EEEOT_OT0_, symObjAddr: 0x13B34, symBinAddr: 0x100014C80, symSize: 0xA0 }
  - { offsetInCU: 0x14BBB, offset: 0x14BBB, size: 0x8, addend: 0x0, symName: __ZNSt3__118__unwrap_iter_implINS_16reverse_iteratorIPP18FIFORequestChannelEELb0EE8__rewrapB8ue170006ES5_S5_, symObjAddr: 0x13BD4, symBinAddr: 0x100014D20, symSize: 0x2E0 }
  - { offsetInCU: 0x14BF1, offset: 0x14BF1, size: 0x8, addend: 0x0, symName: __ZNSt3__116reverse_iteratorIPP18FIFORequestChannelEC2B8ue170006ES3_, symObjAddr: 0x13EB4, symBinAddr: 0x100015000, symSize: 0x10C }
  - { offsetInCU: 0x14C29, offset: 0x14C29, size: 0x8, addend: 0x0, symName: __ZNSt3__114__split_bufferIP18FIFORequestChannelRNS_9allocatorIS2_EEED2Ev, symObjAddr: 0x13FC0, symBinAddr: 0x10001510C, symSize: 0x16C }
  - { offsetInCU: 0x14C55, offset: 0x14C55, size: 0x8, addend: 0x0, symName: __ZNSt3__114__split_bufferIP18FIFORequestChannelRNS_9allocatorIS2_EEE5clearB8ue170006Ev, symObjAddr: 0x1412C, symBinAddr: 0x100015278, symSize: 0xB4 }
  - { offsetInCU: 0x14C7B, offset: 0x14C7B, size: 0x8, addend: 0x0, symName: __ZNKSt3__114__split_bufferIP18FIFORequestChannelRNS_9allocatorIS2_EEE8capacityB8ue170006Ev, symObjAddr: 0x141E0, symBinAddr: 0x10001532C, symSize: 0x144 }
  - { offsetInCU: 0x14CA1, offset: 0x14CA1, size: 0x8, addend: 0x0, symName: __ZNSt3__114__split_bufferIP18FIFORequestChannelRNS_9allocatorIS2_EEE17__destruct_at_endB8ue170006EPS2_, symObjAddr: 0x14324, symBinAddr: 0x100015470, symSize: 0x74 }
  - { offsetInCU: 0x14CD5, offset: 0x14CD5, size: 0x8, addend: 0x0, symName: __ZNSt3__114__split_bufferIP18FIFORequestChannelRNS_9allocatorIS2_EEE17__destruct_at_endB8ue170006EPS2_NS_17integral_constantIbLb0EEE, symObjAddr: 0x14398, symBinAddr: 0x1000154E4, symSize: 0x224 }
  - { offsetInCU: 0x14D16, offset: 0x14D16, size: 0x8, addend: 0x0, symName: __ZNKSt3__114__split_bufferIP18FIFORequestChannelRNS_9allocatorIS2_EEE9__end_capB8ue170006Ev, symObjAddr: 0x145BC, symBinAddr: 0x100015708, symSize: 0x100 }
  - { offsetInCU: 0x14D3C, offset: 0x14D3C, size: 0x8, addend: 0x0, symName: __ZNKSt3__117__compressed_pairIPP18FIFORequestChannelRNS_9allocatorIS2_EEE5firstB8ue170006Ev, symObjAddr: 0x146BC, symBinAddr: 0x100015808, symSize: 0x124 }
  - { offsetInCU: 0x14D62, offset: 0x14D62, size: 0x8, addend: 0x0, symName: __ZNSt3__16vectorIP18FIFORequestChannelNS_9allocatorIS2_EEE22__construct_one_at_endB8ue170006IJRKS2_EEEvDpOT_, symObjAddr: 0x147E0, symBinAddr: 0x10001592C, symSize: 0x550 }
  - { offsetInCU: 0x14DB7, offset: 0x14DB7, size: 0x8, addend: 0x0, symName: __ZNSt3__16vectorIP18FIFORequestChannelNS_9allocatorIS2_EEE21__push_back_slow_pathIRKS2_EEvOT_, symObjAddr: 0x14D30, symBinAddr: 0x100015E7C, symSize: 0x5B0 }
  - { offsetInCU: 0x14E1C, offset: 0x14E1C, size: 0x8, addend: 0x0, symName: __ZNSt3__116allocator_traitsINS_9allocatorIP18FIFORequestChannelEEE9constructB8ue170006IS3_JRKS3_EvEEvRS4_PT_DpOT0_, symObjAddr: 0x152E0, symBinAddr: 0x10001642C, symSize: 0x8C }
  - { offsetInCU: 0x14E73, offset: 0x14E73, size: 0x8, addend: 0x0, symName: __ZNSt3__19allocatorIP18FIFORequestChannelE9constructB8ue170006IS2_JRKS2_EEEvPT_DpOT0_, symObjAddr: 0x1536C, symBinAddr: 0x1000164B8, symSize: 0x168 }
  - { offsetInCU: 0x14EE7, offset: 0x14EE7, size: 0x8, addend: 0x0, symName: __ZNKSt3__113basic_ostreamIcNS_11char_traitsIcEEE6sentrycvbB8ue170006Ev, symObjAddr: 0x16510, symBinAddr: 0x10001765C, symSize: 0x104 }
  - { offsetInCU: 0x14F0D, offset: 0x14F0D, size: 0x8, addend: 0x0, symName: __ZNSt3__119ostreambuf_iteratorIcNS_11char_traitsIcEEEC1B8ue170006ERNS_13basic_ostreamIcS2_EE, symObjAddr: 0x1719C, symBinAddr: 0x1000182E8, symSize: 0x80 }
  - { offsetInCU: 0x14F45, offset: 0x14F45, size: 0x8, addend: 0x0, symName: __ZNKSt3__18ios_base5flagsB8ue170006Ev, symObjAddr: 0x1721C, symBinAddr: 0x100018368, symSize: 0x160 }
  - { offsetInCU: 0x14F6D, offset: 0x14F6D, size: 0x8, addend: 0x0, symName: __ZNKSt3__19basic_iosIcNS_11char_traitsIcEEE4fillB8ue170006Ev, symObjAddr: 0x1737C, symBinAddr: 0x1000184C8, symSize: 0x39C }
  - { offsetInCU: 0x14F95, offset: 0x14F95, size: 0x8, addend: 0x0, symName: __ZNKSt3__119ostreambuf_iteratorIcNS_11char_traitsIcEEE6failedB8ue170006Ev, symObjAddr: 0x17718, symBinAddr: 0x100018864, symSize: 0xB8 }
  - { offsetInCU: 0x14FBB, offset: 0x14FBB, size: 0x8, addend: 0x0, symName: __ZNSt3__19basic_iosIcNS_11char_traitsIcEEE8setstateB8ue170006Ej, symObjAddr: 0x177D0, symBinAddr: 0x10001891C, symSize: 0x128 }
  - { offsetInCU: 0x14FF0, offset: 0x14FF0, size: 0x8, addend: 0x0, symName: __ZNKSt3__18ios_base5widthB8ue170006Ev, symObjAddr: 0x178F8, symBinAddr: 0x100018A44, symSize: 0x138 }
  - { offsetInCU: 0x15018, offset: 0x15018, size: 0x8, addend: 0x0, symName: __ZNSt3__115basic_streambufIcNS_11char_traitsIcEEE5sputnB8ue170006EPKcl, symObjAddr: 0x17A30, symBinAddr: 0x100018B7C, symSize: 0x198 }
  - { offsetInCU: 0x1505A, offset: 0x1505A, size: 0x8, addend: 0x0, symName: __ZNSt3__112basic_stringIcNS_11char_traitsIcEENS_9allocatorIcEEEC1B8ue170006Emc, symObjAddr: 0x17BC8, symBinAddr: 0x100018D14, symSize: 0x88 }
  - { offsetInCU: 0x150A2, offset: 0x150A2, size: 0x8, addend: 0x0, symName: __ZNSt3__112basic_stringIcNS_11char_traitsIcEENS_9allocatorIcEEE4dataB8ue170006Ev, symObjAddr: 0x17C50, symBinAddr: 0x100018D9C, symSize: 0x70 }
  - { offsetInCU: 0x150C8, offset: 0x150C8, size: 0x8, addend: 0x0, symName: __ZNSt3__18ios_base5widthB8ue170006El, symObjAddr: 0x17CC0, symBinAddr: 0x100018E0C, symSize: 0x1F8 }
  - { offsetInCU: 0x1510E, offset: 0x1510E, size: 0x8, addend: 0x0, symName: __ZNSt3__112basic_stringIcNS_11char_traitsIcEENS_9allocatorIcEEEC2B8ue170006Emc, symObjAddr: 0x17EB8, symBinAddr: 0x100019004, symSize: 0x26C }
  - { offsetInCU: 0x15159, offset: 0x15159, size: 0x8, addend: 0x0, symName: __ZNSt3__112basic_stringIcNS_11char_traitsIcEENS_9allocatorIcEEE13__get_pointerB8ue170006Ev, symObjAddr: 0x18138, symBinAddr: 0x100019284, symSize: 0x98 }
  - { offsetInCU: 0x1517F, offset: 0x1517F, size: 0x8, addend: 0x0, symName: __ZNSt3__119ostreambuf_iteratorIcNS_11char_traitsIcEEEC2B8ue170006ERNS_13basic_ostreamIcS2_EE, symObjAddr: 0x181D0, symBinAddr: 0x10001931C, symSize: 0x2E8 }
  - { offsetInCU: 0x151B7, offset: 0x151B7, size: 0x8, addend: 0x0, symName: __ZNKSt3__19basic_iosIcNS_11char_traitsIcEEE5rdbufB8ue170006Ev, symObjAddr: 0x184B8, symBinAddr: 0x100019604, symSize: 0x120 }
  - { offsetInCU: 0x151DF, offset: 0x151DF, size: 0x8, addend: 0x0, symName: __ZNKSt3__18ios_base5rdbufB8ue170006Ev, symObjAddr: 0x185D8, symBinAddr: 0x100019724, symSize: 0x138 }
  - { offsetInCU: 0x15205, offset: 0x15205, size: 0x8, addend: 0x0, symName: __ZNSt3__111char_traitsIcE11eq_int_typeB8ue170006Eii, symObjAddr: 0x18710, symBinAddr: 0x10001985C, symSize: 0x28 }
  - { offsetInCU: 0x15238, offset: 0x15238, size: 0x8, addend: 0x0, symName: __ZNSt3__111char_traitsIcE3eofB8ue170006Ev, symObjAddr: 0x18738, symBinAddr: 0x100019884, symSize: 0x8 }
  - { offsetInCU: 0x1524C, offset: 0x1524C, size: 0x8, addend: 0x0, symName: __ZNKSt3__19basic_iosIcNS_11char_traitsIcEEE5widenB8ue170006Ec, symObjAddr: 0x18740, symBinAddr: 0x10001988C, symSize: 0x47C }
  - { offsetInCU: 0x152BC, offset: 0x152BC, size: 0x8, addend: 0x0, symName: __ZNKSt3__15ctypeIcE5widenB8ue170006Ec, symObjAddr: 0x18D44, symBinAddr: 0x100019E90, symSize: 0x18C }
  - { offsetInCU: 0x152F1, offset: 0x152F1, size: 0x8, addend: 0x0, symName: __ZNSt3__18ios_base8setstateB8ue170006Ej, symObjAddr: 0x18ED0, symBinAddr: 0x10001A01C, symSize: 0x1E0 }
  - { offsetInCU: 0x15328, offset: 0x15328, size: 0x8, addend: 0x0, symName: __ZNSt3__19basic_iosIcNS_11char_traitsIcEEEC2B8ue170006Ev, symObjAddr: 0x190B0, symBinAddr: 0x10001A1FC, symSize: 0x118 }
  - { offsetInCU: 0x15352, offset: 0x15352, size: 0x8, addend: 0x0, symName: __ZNSt3__113basic_ostreamIcNS_11char_traitsIcEEEC2B8ue170006EPNS_15basic_streambufIcS2_EE, symObjAddr: 0x191C8, symBinAddr: 0x10001A314, symSize: 0x380 }
  - { offsetInCU: 0x15397, offset: 0x15397, size: 0x8, addend: 0x0, symName: __ZNSt3__18ios_baseC2B8ue170006Ev, symObjAddr: 0x19548, symBinAddr: 0x10001A694, symSize: 0xCC }
  - { offsetInCU: 0x153C1, offset: 0x153C1, size: 0x8, addend: 0x0, symName: __ZNSt3__19basic_iosIcNS_11char_traitsIcEEE4initB8ue170006EPNS_15basic_streambufIcS2_EE, symObjAddr: 0x19614, symBinAddr: 0x10001A760, symSize: 0x2C8 }
  - { offsetInCU: 0x153F8, offset: 0x153F8, size: 0x8, addend: 0x0, symName: __ZNKSt3__112basic_stringIcNS_11char_traitsIcEENS_9allocatorIcEEE15__get_long_sizeB8ue170006Ev, symObjAddr: 0x198DC, symBinAddr: 0x10001AA28, symSize: 0x210 }
  - { offsetInCU: 0x1541E, offset: 0x1541E, size: 0x8, addend: 0x0, symName: __ZNKSt3__112basic_stringIcNS_11char_traitsIcEENS_9allocatorIcEEE16__get_short_sizeB8ue170006Ev, symObjAddr: 0x19AEC, symBinAddr: 0x10001AC38, symSize: 0x1F8 }
  - { offsetInCU: 0x15444, offset: 0x15444, size: 0x8, addend: 0x0, symName: __ZNSt3__113basic_filebufIcNS_11char_traitsIcEEE4openERKNS_12basic_stringIcS2_NS_9allocatorIcEEEEj, symObjAddr: 0x19CE4, symBinAddr: 0x10001AE30, symSize: 0x138 }
  - { offsetInCU: 0x3C, offset: 0x155D2, size: 0x8, addend: 0x0, symName: _.str, symObjAddr: 0x14540, symBinAddr: 0x10002D2C0, symSize: 0x0 }
  - { offsetInCU: 0x4620, offset: 0x19BB6, size: 0x8, addend: 0x0, symName: __ZNSt3__112__to_addressB8ue170006INS_12basic_stringIcNS_11char_traitsIcEENS_9allocatorIcEEEEEEPT_S8_, symObjAddr: 0x4A50, symBinAddr: 0x10001D950, symSize: 0x14 }
  - { offsetInCU: 0x4655, offset: 0x19BEB, size: 0x8, addend: 0x0, symName: __ZNSt3__119__allocate_at_leastB8ue170006INS_9allocatorINS_12basic_stringIcNS_11char_traitsIcEENS1_IcEEEEEEEENS_19__allocation_resultINS_16allocator_traitsIT_E7pointerEEERSA_m, symObjAddr: 0x9F0C, symBinAddr: 0x100021E40, symSize: 0x28C }
  - { offsetInCU: 0x469A, offset: 0x19C30, size: 0x8, addend: 0x0, symName: __ZNSt3__142__uninitialized_allocator_move_if_noexceptB8ue170006INS_9allocatorINS_12basic_stringIcNS_11char_traitsIcEENS1_IcEEEEEENS_16reverse_iteratorIPS6_EESA_SA_EET2_RT_T0_T1_SB_, symObjAddr: 0xAB48, symBinAddr: 0x100022910, symSize: 0x5D8 }
  - { offsetInCU: 0x474F, offset: 0x19CE5, size: 0x8, addend: 0x0, symName: __ZNSt3__14swapB8ue170006IPNS_12basic_stringIcNS_11char_traitsIcEENS_9allocatorIcEEEEEENS_9enable_ifIXaasr21is_move_constructibleIT_EE5valuesr18is_move_assignableIS9_EE5valueEvE4typeERS9_SC_, symObjAddr: 0xB250, symBinAddr: 0x100023018, symSize: 0x1C0 }
  - { offsetInCU: 0x47A0, offset: 0x19D36, size: 0x8, addend: 0x0, symName: __ZNSt3__122__make_exception_guardB8ue170006INS_29_AllocatorDestroyRangeReverseINS_9allocatorINS_12basic_stringIcNS_11char_traitsIcEENS2_IcEEEEEENS_16reverse_iteratorIPS7_EEEEEENS_28__exception_guard_exceptionsIT_EESE_, symObjAddr: 0xB788, symBinAddr: 0x100023550, symSize: 0x23C }
  - { offsetInCU: 0x47D7, offset: 0x19D6D, size: 0x8, addend: 0x0, symName: __ZNSt3__1neB8ue170006IPNS_12basic_stringIcNS_11char_traitsIcEENS_9allocatorIcEEEES7_EEbRKNS_16reverse_iteratorIT_EERKNS8_IT0_EE, symObjAddr: 0xBA54, symBinAddr: 0x10002381C, symSize: 0x9C }
  - { offsetInCU: 0x4823, offset: 0x19DB9, size: 0x8, addend: 0x0, symName: __ZNSt3__112__to_addressB8ue170006INS_16reverse_iteratorIPNS_12basic_stringIcNS_11char_traitsIcEENS_9allocatorIcEEEEEEvEEu7__decayIDTclsr19__to_address_helperIT_EE6__callclsr3stdE7declvalIRKSA_EEEEESC_, symObjAddr: 0xBB7C, symBinAddr: 0x100023944, symSize: 0x6C }
  - { offsetInCU: 0x4883, offset: 0x19E19, size: 0x8, addend: 0x0, symName: __ZNSt3__119__allocator_destroyB8ue170006INS_9allocatorINS_12basic_stringIcNS_11char_traitsIcEENS1_IcEEEEEENS_16reverse_iteratorINS8_IPS6_EEEESB_EEvRT_T0_T1_, symObjAddr: 0xCF50, symBinAddr: 0x100024A64, symSize: 0x1A4 }
  - { offsetInCU: 0x48E8, offset: 0x19E7E, size: 0x8, addend: 0x0, symName: __ZNSt3__1neB8ue170006INS_16reverse_iteratorIPNS_12basic_stringIcNS_11char_traitsIcEENS_9allocatorIcEEEEEES9_EEbRKNS1_IT_EERKNS1_IT0_EE, symObjAddr: 0xD390, symBinAddr: 0x100024EA4, symSize: 0x324 }
  - { offsetInCU: 0x4936, offset: 0x19ECC, size: 0x8, addend: 0x0, symName: __ZNSt3__112__to_addressB8ue170006INS_16reverse_iteratorINS1_IPNS_12basic_stringIcNS_11char_traitsIcEENS_9allocatorIcEEEEEEEEvEEu7__decayIDTclsr19__to_address_helperIT_EE6__callclsr3stdE7declvalIRKSB_EEEEESD_, symObjAddr: 0xD6B4, symBinAddr: 0x1000251C8, symSize: 0x6C }
  - { offsetInCU: 0x4CD6, offset: 0x1A26C, size: 0x8, addend: 0x0, symName: __ZNSt3__16vectorINS_12basic_stringIcNS_11char_traitsIcEENS_9allocatorIcEEEENS4_IS6_EEE26__swap_out_circular_bufferERNS_14__split_bufferIS6_RS7_EE, symObjAddr: 0x7BD0, symBinAddr: 0x1000205F0, symSize: 0x85C }
  - { offsetInCU: 0x6C31, offset: 0x1C1C7, size: 0x8, addend: 0x0, symName: __Z11EXITONERRORNSt3__112basic_stringIcNS_11char_traitsIcEENS_9allocatorIcEEEE, symObjAddr: 0x0, symBinAddr: 0x10001B000, symSize: 0x8C }
  - { offsetInCU: 0x6C5B, offset: 0x1C1F1, size: 0x8, addend: 0x0, symName: __Z5splitNSt3__112basic_stringIcNS_11char_traitsIcEENS_9allocatorIcEEEEc, symObjAddr: 0xF8, symBinAddr: 0x10001B08C, symSize: 0x70C }
  - { offsetInCU: 0x6CDD, offset: 0x1C273, size: 0x8, addend: 0x0, symName: __ZNSt3__16vectorINS_12basic_stringIcNS_11char_traitsIcEENS_9allocatorIcEEEENS4_IS6_EEEC1B8ue170006Ev, symObjAddr: 0x804, symBinAddr: 0x10001B798, symSize: 0x78 }
  - { offsetInCU: 0x6D07, offset: 0x1C29D, size: 0x8, addend: 0x0, symName: __ZNKSt3__112basic_stringIcNS_11char_traitsIcEENS_9allocatorIcEEE13find_first_ofB8ue170006Ecm, symObjAddr: 0x914, symBinAddr: 0x10001B810, symSize: 0x7C }
  - { offsetInCU: 0x6D4D, offset: 0x1C2E3, size: 0x8, addend: 0x0, symName: __ZNKSt3__112basic_stringIcNS_11char_traitsIcEENS_9allocatorIcEEE6substrB8ue170006Emm, symObjAddr: 0x990, symBinAddr: 0x10001B88C, symSize: 0x2E0 }
  - { offsetInCU: 0x6D94, offset: 0x1C32A, size: 0x8, addend: 0x0, symName: __ZNSt3__16vectorINS_12basic_stringIcNS_11char_traitsIcEENS_9allocatorIcEEEENS4_IS6_EEE9push_backB8ue170006ERKS6_, symObjAddr: 0xC70, symBinAddr: 0x10001BB6C, symSize: 0x1FC }
  - { offsetInCU: 0x6DCB, offset: 0x1C361, size: 0x8, addend: 0x0, symName: __ZNSt3__16vectorINS_12basic_stringIcNS_11char_traitsIcEENS_9allocatorIcEEEENS4_IS6_EEED1B8ue170006Ev, symObjAddr: 0xF70, symBinAddr: 0x10001BD68, symSize: 0x78 }
  - { offsetInCU: 0x6DF5, offset: 0x1C38B, size: 0x8, addend: 0x0, symName: __Z13get_file_sizeNSt3__112basic_stringIcNS_11char_traitsIcEENS_9allocatorIcEEEE, symObjAddr: 0xFE8, symBinAddr: 0x10001BDE0, symSize: 0x338 }
  - { offsetInCU: 0x6E53, offset: 0x1C3E9, size: 0x8, addend: 0x0, symName: __ZNSt3__16vectorINS_12basic_stringIcNS_11char_traitsIcEENS_9allocatorIcEEEENS4_IS6_EEEC2B8ue170006Ev, symObjAddr: 0x3218, symBinAddr: 0x10001C118, symSize: 0x340 }
  - { offsetInCU: 0x6E88, offset: 0x1C41E, size: 0x8, addend: 0x0, symName: __ZNSt3__117__compressed_pairIPNS_12basic_stringIcNS_11char_traitsIcEENS_9allocatorIcEEEENS4_IS6_EEEC1B8ue170006IDnNS_18__default_init_tagEEEOT_OT0_, symObjAddr: 0x3558, symBinAddr: 0x10001C458, symSize: 0x88 }
  - { offsetInCU: 0x6EE0, offset: 0x1C476, size: 0x8, addend: 0x0, symName: __ZNSt3__117__compressed_pairIPNS_12basic_stringIcNS_11char_traitsIcEENS_9allocatorIcEEEENS4_IS6_EEEC2B8ue170006IDnNS_18__default_init_tagEEEOT_OT0_, symObjAddr: 0x35E0, symBinAddr: 0x10001C4E0, symSize: 0x140 }
  - { offsetInCU: 0x6F38, offset: 0x1C4CE, size: 0x8, addend: 0x0, symName: __ZNSt3__122__compressed_pair_elemIPNS_12basic_stringIcNS_11char_traitsIcEENS_9allocatorIcEEEELi0ELb0EEC2B8ue170006IDnvEEOT_, symObjAddr: 0x3720, symBinAddr: 0x10001C620, symSize: 0xBC }
  - { offsetInCU: 0x6F7A, offset: 0x1C510, size: 0x8, addend: 0x0, symName: __ZNSt3__122__compressed_pair_elemINS_9allocatorINS_12basic_stringIcNS_11char_traitsIcEENS1_IcEEEEEELi1ELb1EEC2B8ue170006ENS_18__default_init_tagE, symObjAddr: 0x37DC, symBinAddr: 0x10001C6DC, symSize: 0x84 }
  - { offsetInCU: 0x6FAF, offset: 0x1C545, size: 0x8, addend: 0x0, symName: __ZNSt3__19allocatorINS_12basic_stringIcNS_11char_traitsIcEENS0_IcEEEEEC2B8ue170006Ev, symObjAddr: 0x3860, symBinAddr: 0x10001C760, symSize: 0x84 }
  - { offsetInCU: 0x6FD9, offset: 0x1C56F, size: 0x8, addend: 0x0, symName: __ZNSt3__116__non_trivial_ifILb1ENS_9allocatorINS_12basic_stringIcNS_11char_traitsIcEENS1_IcEEEEEEEC2B8ue170006Ev, symObjAddr: 0x38E4, symBinAddr: 0x10001C7E4, symSize: 0x54 }
  - { offsetInCU: 0x7003, offset: 0x1C599, size: 0x8, addend: 0x0, symName: __ZNSt3__16vectorINS_12basic_stringIcNS_11char_traitsIcEENS_9allocatorIcEEEENS4_IS6_EEED2B8ue170006Ev, symObjAddr: 0x3938, symBinAddr: 0x10001C838, symSize: 0x298 }
  - { offsetInCU: 0x702E, offset: 0x1C5C4, size: 0x8, addend: 0x0, symName: __ZNSt3__16vectorINS_12basic_stringIcNS_11char_traitsIcEENS_9allocatorIcEEEENS4_IS6_EEE16__destroy_vectorC1B8ue170006ERS8_, symObjAddr: 0x3BD0, symBinAddr: 0x10001CAD0, symSize: 0x80 }
  - { offsetInCU: 0x7067, offset: 0x1C5FD, size: 0x8, addend: 0x0, symName: __ZNSt3__16vectorINS_12basic_stringIcNS_11char_traitsIcEENS_9allocatorIcEEEENS4_IS6_EEE16__destroy_vectorclB8ue170006Ev, symObjAddr: 0x3C50, symBinAddr: 0x10001CB50, symSize: 0x43C }
  - { offsetInCU: 0x708D, offset: 0x1C623, size: 0x8, addend: 0x0, symName: __ZNSt3__16vectorINS_12basic_stringIcNS_11char_traitsIcEENS_9allocatorIcEEEENS4_IS6_EEE16__destroy_vectorC2B8ue170006ERS8_, symObjAddr: 0x408C, symBinAddr: 0x10001CF8C, symSize: 0x108 }
  - { offsetInCU: 0x70C6, offset: 0x1C65C, size: 0x8, addend: 0x0, symName: __ZNSt3__16vectorINS_12basic_stringIcNS_11char_traitsIcEENS_9allocatorIcEEEENS4_IS6_EEE7__clearB8ue170006Ev, symObjAddr: 0x4194, symBinAddr: 0x10001D094, symSize: 0xB0 }
  - { offsetInCU: 0x70EC, offset: 0x1C682, size: 0x8, addend: 0x0, symName: __ZNKSt3__16vectorINS_12basic_stringIcNS_11char_traitsIcEENS_9allocatorIcEEEENS4_IS6_EEE17__annotate_deleteB8ue170006Ev, symObjAddr: 0x4244, symBinAddr: 0x10001D144, symSize: 0x388 }
  - { offsetInCU: 0x7112, offset: 0x1C6A8, size: 0x8, addend: 0x0, symName: __ZNSt3__116allocator_traitsINS_9allocatorINS_12basic_stringIcNS_11char_traitsIcEENS1_IcEEEEEEE10deallocateB8ue170006ERS7_PS6_m, symObjAddr: 0x45CC, symBinAddr: 0x10001D4CC, symSize: 0x34 }
  - { offsetInCU: 0x7154, offset: 0x1C6EA, size: 0x8, addend: 0x0, symName: __ZNSt3__16vectorINS_12basic_stringIcNS_11char_traitsIcEENS_9allocatorIcEEEENS4_IS6_EEE7__allocB8ue170006Ev, symObjAddr: 0x4600, symBinAddr: 0x10001D500, symSize: 0xE4 }
  - { offsetInCU: 0x717A, offset: 0x1C710, size: 0x8, addend: 0x0, symName: __ZNKSt3__16vectorINS_12basic_stringIcNS_11char_traitsIcEENS_9allocatorIcEEEENS4_IS6_EEE8capacityB8ue170006Ev, symObjAddr: 0x46E4, symBinAddr: 0x10001D5E4, symSize: 0x144 }
  - { offsetInCU: 0x71A0, offset: 0x1C736, size: 0x8, addend: 0x0, symName: __ZNSt3__16vectorINS_12basic_stringIcNS_11char_traitsIcEENS_9allocatorIcEEEENS4_IS6_EEE22__base_destruct_at_endB8ue170006EPS6_, symObjAddr: 0x4828, symBinAddr: 0x10001D728, symSize: 0x1FC }
  - { offsetInCU: 0x71E4, offset: 0x1C77A, size: 0x8, addend: 0x0, symName: __ZNSt3__116allocator_traitsINS_9allocatorINS_12basic_stringIcNS_11char_traitsIcEENS1_IcEEEEEEE7destroyB8ue170006IS6_vEEvRS7_PT_, symObjAddr: 0x4A24, symBinAddr: 0x10001D924, symSize: 0x2C }
  - { offsetInCU: 0x7221, offset: 0x1C7B7, size: 0x8, addend: 0x0, symName: __ZNSt3__19allocatorINS_12basic_stringIcNS_11char_traitsIcEENS0_IcEEEEE7destroyB8ue170006EPS5_, symObjAddr: 0x4A64, symBinAddr: 0x10001D964, symSize: 0x9C }
  - { offsetInCU: 0x7255, offset: 0x1C7EB, size: 0x8, addend: 0x0, symName: __ZNKSt3__16vectorINS_12basic_stringIcNS_11char_traitsIcEENS_9allocatorIcEEEENS4_IS6_EEE31__annotate_contiguous_containerEPKvSA_SA_SA_, symObjAddr: 0x4B00, symBinAddr: 0x10001DA00, symSize: 0x9C }
  - { offsetInCU: 0x72B7, offset: 0x1C84D, size: 0x8, addend: 0x0, symName: __ZNKSt3__16vectorINS_12basic_stringIcNS_11char_traitsIcEENS_9allocatorIcEEEENS4_IS6_EEE4dataB8ue170006Ev, symObjAddr: 0x4B9C, symBinAddr: 0x10001DA9C, symSize: 0xB0 }
  - { offsetInCU: 0x72DD, offset: 0x1C873, size: 0x8, addend: 0x0, symName: __ZNKSt3__16vectorINS_12basic_stringIcNS_11char_traitsIcEENS_9allocatorIcEEEENS4_IS6_EEE4sizeB8ue170006Ev, symObjAddr: 0x4C4C, symBinAddr: 0x10001DB4C, symSize: 0xF8 }
  - { offsetInCU: 0x7303, offset: 0x1C899, size: 0x8, addend: 0x0, symName: __ZNSt3__19allocatorINS_12basic_stringIcNS_11char_traitsIcEENS0_IcEEEEE10deallocateB8ue170006EPS5_m, symObjAddr: 0x4D44, symBinAddr: 0x10001DC44, symSize: 0x7C }
  - { offsetInCU: 0x7345, offset: 0x1C8DB, size: 0x8, addend: 0x0, symName: __ZNSt3__117__compressed_pairIPNS_12basic_stringIcNS_11char_traitsIcEENS_9allocatorIcEEEENS4_IS6_EEE6secondB8ue170006Ev, symObjAddr: 0x4DC0, symBinAddr: 0x10001DCC0, symSize: 0x108 }
  - { offsetInCU: 0x736B, offset: 0x1C901, size: 0x8, addend: 0x0, symName: __ZNSt3__122__compressed_pair_elemINS_9allocatorINS_12basic_stringIcNS_11char_traitsIcEENS1_IcEEEEEELi1ELb1EE5__getB8ue170006Ev, symObjAddr: 0x4EC8, symBinAddr: 0x10001DDC8, symSize: 0x74 }
  - { offsetInCU: 0x7391, offset: 0x1C927, size: 0x8, addend: 0x0, symName: __ZNKSt3__16vectorINS_12basic_stringIcNS_11char_traitsIcEENS_9allocatorIcEEEENS4_IS6_EEE9__end_capB8ue170006Ev, symObjAddr: 0x4F3C, symBinAddr: 0x10001DE3C, symSize: 0x100 }
  - { offsetInCU: 0x73B7, offset: 0x1C94D, size: 0x8, addend: 0x0, symName: __ZNKSt3__117__compressed_pairIPNS_12basic_stringIcNS_11char_traitsIcEENS_9allocatorIcEEEENS4_IS6_EEE5firstB8ue170006Ev, symObjAddr: 0x503C, symBinAddr: 0x10001DF3C, symSize: 0x124 }
  - { offsetInCU: 0x73DD, offset: 0x1C973, size: 0x8, addend: 0x0, symName: __ZNKSt3__122__compressed_pair_elemIPNS_12basic_stringIcNS_11char_traitsIcEENS_9allocatorIcEEEELi0ELb0EE5__getB8ue170006Ev, symObjAddr: 0x5160, symBinAddr: 0x10001E060, symSize: 0xAC }
  - { offsetInCU: 0x7403, offset: 0x1C999, size: 0x8, addend: 0x0, symName: __ZNSt3__19allocatorIcEC1B8ue170006Ev, symObjAddr: 0x5614, symBinAddr: 0x10001E10C, symSize: 0x5C }
  - { offsetInCU: 0x742D, offset: 0x1C9C3, size: 0x8, addend: 0x0, symName: __ZNSt3__16vectorINS_12basic_stringIcNS_11char_traitsIcEENS_9allocatorIcEEEENS4_IS6_EEE9__end_capB8ue170006Ev, symObjAddr: 0x5748, symBinAddr: 0x10001E168, symSize: 0x100 }
  - { offsetInCU: 0x7453, offset: 0x1C9E9, size: 0x8, addend: 0x0, symName: __ZNSt3__16vectorINS_12basic_stringIcNS_11char_traitsIcEENS_9allocatorIcEEEENS4_IS6_EEE22__construct_one_at_endB8ue170006IJRKS6_EEEvDpOT_, symObjAddr: 0x5848, symBinAddr: 0x10001E268, symSize: 0x550 }
  - { offsetInCU: 0x74A8, offset: 0x1CA3E, size: 0x8, addend: 0x0, symName: __ZNSt3__16vectorINS_12basic_stringIcNS_11char_traitsIcEENS_9allocatorIcEEEENS4_IS6_EEE21__push_back_slow_pathIRKS6_EEvOT_, symObjAddr: 0x5D98, symBinAddr: 0x10001E7B8, symSize: 0x5B0 }
  - { offsetInCU: 0x750D, offset: 0x1CAA3, size: 0x8, addend: 0x0, symName: __ZNSt3__117__compressed_pairIPNS_12basic_stringIcNS_11char_traitsIcEENS_9allocatorIcEEEENS4_IS6_EEE5firstB8ue170006Ev, symObjAddr: 0x6348, symBinAddr: 0x10001ED68, symSize: 0x124 }
  - { offsetInCU: 0x7533, offset: 0x1CAC9, size: 0x8, addend: 0x0, symName: __ZNSt3__122__compressed_pair_elemIPNS_12basic_stringIcNS_11char_traitsIcEENS_9allocatorIcEEEELi0ELb0EE5__getB8ue170006Ev, symObjAddr: 0x646C, symBinAddr: 0x10001EE8C, symSize: 0xAC }
  - { offsetInCU: 0x7572, offset: 0x1CB08, size: 0x8, addend: 0x0, symName: __ZNSt3__16vectorINS_12basic_stringIcNS_11char_traitsIcEENS_9allocatorIcEEEENS4_IS6_EEE21_ConstructTransactionC1B8ue170006ERS8_m, symObjAddr: 0x6518, symBinAddr: 0x10001EF38, symSize: 0x88 }
  - { offsetInCU: 0x75BA, offset: 0x1CB50, size: 0x8, addend: 0x0, symName: __ZNSt3__116allocator_traitsINS_9allocatorINS_12basic_stringIcNS_11char_traitsIcEENS1_IcEEEEEEE9constructB8ue170006IS6_JRKS6_EvEEvRS7_PT_DpOT0_, symObjAddr: 0x65A0, symBinAddr: 0x10001EFC0, symSize: 0x8C }
  - { offsetInCU: 0x7611, offset: 0x1CBA7, size: 0x8, addend: 0x0, symName: __ZNSt3__16vectorINS_12basic_stringIcNS_11char_traitsIcEENS_9allocatorIcEEEENS4_IS6_EEE21_ConstructTransactionD1B8ue170006Ev, symObjAddr: 0x662C, symBinAddr: 0x10001F04C, symSize: 0x78 }
  - { offsetInCU: 0x763B, offset: 0x1CBD1, size: 0x8, addend: 0x0, symName: __ZNSt3__16vectorINS_12basic_stringIcNS_11char_traitsIcEENS_9allocatorIcEEEENS4_IS6_EEE21_ConstructTransactionC2B8ue170006ERS8_m, symObjAddr: 0x66A4, symBinAddr: 0x10001F0C4, symSize: 0x3E0 }
  - { offsetInCU: 0x7683, offset: 0x1CC19, size: 0x8, addend: 0x0, symName: __ZNKSt3__16vectorINS_12basic_stringIcNS_11char_traitsIcEENS_9allocatorIcEEEENS4_IS6_EEE19__annotate_increaseB8ue170006Em, symObjAddr: 0x6A84, symBinAddr: 0x10001F4A4, symSize: 0x46C }
  - { offsetInCU: 0x76B8, offset: 0x1CC4E, size: 0x8, addend: 0x0, symName: __ZNSt3__19allocatorINS_12basic_stringIcNS_11char_traitsIcEENS0_IcEEEEE9constructB8ue170006IS5_JRKS5_EEEvPT_DpOT0_, symObjAddr: 0x6EF0, symBinAddr: 0x10001F910, symSize: 0xEC }
  - { offsetInCU: 0x770E, offset: 0x1CCA4, size: 0x8, addend: 0x0, symName: __ZNSt3__16vectorINS_12basic_stringIcNS_11char_traitsIcEENS_9allocatorIcEEEENS4_IS6_EEE21_ConstructTransactionD2B8ue170006Ev, symObjAddr: 0x6FDC, symBinAddr: 0x10001F9FC, symSize: 0x390 }
  - { offsetInCU: 0x7738, offset: 0x1CCCE, size: 0x8, addend: 0x0, symName: __ZNKSt3__16vectorINS_12basic_stringIcNS_11char_traitsIcEENS_9allocatorIcEEEENS4_IS6_EEE17__annotate_shrinkB8ue170006Em, symObjAddr: 0x736C, symBinAddr: 0x10001FD8C, symSize: 0x378 }
  - { offsetInCU: 0x776D, offset: 0x1CD03, size: 0x8, addend: 0x0, symName: __ZNKSt3__16vectorINS_12basic_stringIcNS_11char_traitsIcEENS_9allocatorIcEEEENS4_IS6_EEE11__recommendB8ue170006Em, symObjAddr: 0x76E4, symBinAddr: 0x100020104, symSize: 0x45C }
  - { offsetInCU: 0x77C9, offset: 0x1CD5F, size: 0x8, addend: 0x0, symName: __ZNSt3__114__split_bufferINS_12basic_stringIcNS_11char_traitsIcEENS_9allocatorIcEEEERNS4_IS6_EEEC1EmmS8_, symObjAddr: 0x7B40, symBinAddr: 0x100020560, symSize: 0x90 }
  - { offsetInCU: 0x781F, offset: 0x1CDB5, size: 0x8, addend: 0x0, symName: __ZNSt3__114__split_bufferINS_12basic_stringIcNS_11char_traitsIcEENS_9allocatorIcEEEERNS4_IS6_EEED1Ev, symObjAddr: 0x842C, symBinAddr: 0x100020E4C, symSize: 0x78 }
  - { offsetInCU: 0x784B, offset: 0x1CDE1, size: 0x8, addend: 0x0, symName: __ZNKSt3__16vectorINS_12basic_stringIcNS_11char_traitsIcEENS_9allocatorIcEEEENS4_IS6_EEE8max_sizeEv, symObjAddr: 0x84A4, symBinAddr: 0x100020EC4, symSize: 0x3B8 }
  - { offsetInCU: 0x7874, offset: 0x1CE0A, size: 0x8, addend: 0x0, symName: __ZNKSt3__16vectorINS_12basic_stringIcNS_11char_traitsIcEENS_9allocatorIcEEEENS4_IS6_EEE20__throw_length_errorB8ue170006Ev, symObjAddr: 0x885C, symBinAddr: 0x10002127C, symSize: 0x80 }
  - { offsetInCU: 0x78A4, offset: 0x1CE3A, size: 0x8, addend: 0x0, symName: __ZNSt3__116allocator_traitsINS_9allocatorINS_12basic_stringIcNS_11char_traitsIcEENS1_IcEEEEEEE8max_sizeB8ue170006IS7_vEEmRKS7_, symObjAddr: 0x8AE4, symBinAddr: 0x1000212FC, symSize: 0x24 }
  - { offsetInCU: 0x78D2, offset: 0x1CE68, size: 0x8, addend: 0x0, symName: __ZNKSt3__16vectorINS_12basic_stringIcNS_11char_traitsIcEENS_9allocatorIcEEEENS4_IS6_EEE7__allocB8ue170006Ev, symObjAddr: 0x8B08, symBinAddr: 0x100021320, symSize: 0xE4 }
  - { offsetInCU: 0x78F8, offset: 0x1CE8E, size: 0x8, addend: 0x0, symName: __ZNKSt3__19allocatorINS_12basic_stringIcNS_11char_traitsIcEENS0_IcEEEEE8max_sizeB8ue170006Ev, symObjAddr: 0x8FAC, symBinAddr: 0x100021404, symSize: 0x50 }
  - { offsetInCU: 0x791E, offset: 0x1CEB4, size: 0x8, addend: 0x0, symName: __ZNKSt3__117__compressed_pairIPNS_12basic_stringIcNS_11char_traitsIcEENS_9allocatorIcEEEENS4_IS6_EEE6secondB8ue170006Ev, symObjAddr: 0x8FFC, symBinAddr: 0x100021454, symSize: 0x108 }
  - { offsetInCU: 0x7944, offset: 0x1CEDA, size: 0x8, addend: 0x0, symName: __ZNKSt3__122__compressed_pair_elemINS_9allocatorINS_12basic_stringIcNS_11char_traitsIcEENS1_IcEEEEEELi1ELb1EE5__getB8ue170006Ev, symObjAddr: 0x9104, symBinAddr: 0x10002155C, symSize: 0x74 }
  - { offsetInCU: 0x796A, offset: 0x1CF00, size: 0x8, addend: 0x0, symName: __ZNSt3__114__split_bufferINS_12basic_stringIcNS_11char_traitsIcEENS_9allocatorIcEEEERNS4_IS6_EEEC2EmmS8_, symObjAddr: 0x969C, symBinAddr: 0x1000215D0, symSize: 0x7E8 }
  - { offsetInCU: 0x79E5, offset: 0x1CF7B, size: 0x8, addend: 0x0, symName: __ZNSt3__117__compressed_pairIPNS_12basic_stringIcNS_11char_traitsIcEENS_9allocatorIcEEEERNS4_IS6_EEEC1B8ue170006IDnS9_EEOT_OT0_, symObjAddr: 0x9E84, symBinAddr: 0x100021DB8, symSize: 0x88 }
  - { offsetInCU: 0x7A3D, offset: 0x1CFD3, size: 0x8, addend: 0x0, symName: __ZNSt3__114__split_bufferINS_12basic_stringIcNS_11char_traitsIcEENS_9allocatorIcEEEERNS4_IS6_EEE7__allocB8ue170006Ev, symObjAddr: 0xA198, symBinAddr: 0x1000220CC, symSize: 0xE4 }
  - { offsetInCU: 0x7A63, offset: 0x1CFF9, size: 0x8, addend: 0x0, symName: __ZNSt3__114__split_bufferINS_12basic_stringIcNS_11char_traitsIcEENS_9allocatorIcEEEERNS4_IS6_EEE9__end_capB8ue170006Ev, symObjAddr: 0xA27C, symBinAddr: 0x1000221B0, symSize: 0x100 }
  - { offsetInCU: 0x7A89, offset: 0x1D01F, size: 0x8, addend: 0x0, symName: __ZNSt3__117__compressed_pairIPNS_12basic_stringIcNS_11char_traitsIcEENS_9allocatorIcEEEERNS4_IS6_EEEC2B8ue170006IDnS9_EEOT_OT0_, symObjAddr: 0xA37C, symBinAddr: 0x1000222B0, symSize: 0x198 }
  - { offsetInCU: 0x7AE1, offset: 0x1D077, size: 0x8, addend: 0x0, symName: __ZNSt3__122__compressed_pair_elemIRNS_9allocatorINS_12basic_stringIcNS_11char_traitsIcEENS1_IcEEEEEELi1ELb0EEC2B8ue170006IS8_vEEOT_, symObjAddr: 0xA514, symBinAddr: 0x100022448, symSize: 0xEC }
  - { offsetInCU: 0x7B23, offset: 0x1D0B9, size: 0x8, addend: 0x0, symName: __ZNSt3__19allocatorINS_12basic_stringIcNS_11char_traitsIcEENS0_IcEEEEE8allocateB8ue170006Em, symObjAddr: 0xA600, symBinAddr: 0x100022534, symSize: 0xD0 }
  - { offsetInCU: 0x7B57, offset: 0x1D0ED, size: 0x8, addend: 0x0, symName: __ZNSt3__117__compressed_pairIPNS_12basic_stringIcNS_11char_traitsIcEENS_9allocatorIcEEEERNS4_IS6_EEE6secondB8ue170006Ev, symObjAddr: 0xA83C, symBinAddr: 0x100022604, symSize: 0x110 }
  - { offsetInCU: 0x7B7D, offset: 0x1D113, size: 0x8, addend: 0x0, symName: __ZNSt3__122__compressed_pair_elemIRNS_9allocatorINS_12basic_stringIcNS_11char_traitsIcEENS1_IcEEEEEELi1ELb0EE5__getB8ue170006Ev, symObjAddr: 0xA94C, symBinAddr: 0x100022714, symSize: 0xD8 }
  - { offsetInCU: 0x7BA3, offset: 0x1D139, size: 0x8, addend: 0x0, symName: __ZNSt3__117__compressed_pairIPNS_12basic_stringIcNS_11char_traitsIcEENS_9allocatorIcEEEERNS4_IS6_EEE5firstB8ue170006Ev, symObjAddr: 0xAA24, symBinAddr: 0x1000227EC, symSize: 0x124 }
  - { offsetInCU: 0x7BC9, offset: 0x1D15F, size: 0x8, addend: 0x0, symName: __ZNSt3__116reverse_iteratorIPNS_12basic_stringIcNS_11char_traitsIcEENS_9allocatorIcEEEEEC1B8ue170006ES7_, symObjAddr: 0xB120, symBinAddr: 0x100022EE8, symSize: 0x80 }
  - { offsetInCU: 0x7C01, offset: 0x1D197, size: 0x8, addend: 0x0, symName: __ZNKSt3__116reverse_iteratorIPNS_12basic_stringIcNS_11char_traitsIcEENS_9allocatorIcEEEEE4baseB8ue170006Ev, symObjAddr: 0xB1A0, symBinAddr: 0x100022F68, symSize: 0xB0 }
  - { offsetInCU: 0x7C27, offset: 0x1D1BD, size: 0x8, addend: 0x0, symName: __ZNKSt3__16vectorINS_12basic_stringIcNS_11char_traitsIcEENS_9allocatorIcEEEENS4_IS6_EEE14__annotate_newB8ue170006Em, symObjAddr: 0xB410, symBinAddr: 0x1000231D8, symSize: 0x378 }
  - { offsetInCU: 0x7C5C, offset: 0x1D1F2, size: 0x8, addend: 0x0, symName: __ZNSt3__129_AllocatorDestroyRangeReverseINS_9allocatorINS_12basic_stringIcNS_11char_traitsIcEENS1_IcEEEEEENS_16reverse_iteratorIPS6_EEEC1B8ue170006ERS7_RSA_SD_, symObjAddr: 0xB9C4, symBinAddr: 0x10002378C, symSize: 0x90 }
  - { offsetInCU: 0x7CB8, offset: 0x1D24E, size: 0x8, addend: 0x0, symName: __ZNSt3__116allocator_traitsINS_9allocatorINS_12basic_stringIcNS_11char_traitsIcEENS1_IcEEEEEEE9constructB8ue170006IS6_JS6_EvEEvRS7_PT_DpOT0_, symObjAddr: 0xBAF0, symBinAddr: 0x1000238B8, symSize: 0x8C }
  - { offsetInCU: 0x7D0F, offset: 0x1D2A5, size: 0x8, addend: 0x0, symName: __ZNKSt3__116reverse_iteratorIPNS_12basic_stringIcNS_11char_traitsIcEENS_9allocatorIcEEEEEdeB8ue170006Ev, symObjAddr: 0xBBE8, symBinAddr: 0x1000239B0, symSize: 0x184 }
  - { offsetInCU: 0x7D43, offset: 0x1D2D9, size: 0x8, addend: 0x0, symName: __ZNSt3__116reverse_iteratorIPNS_12basic_stringIcNS_11char_traitsIcEENS_9allocatorIcEEEEEppB8ue170006Ev, symObjAddr: 0xBD6C, symBinAddr: 0x100023B34, symSize: 0x1B0 }
  - { offsetInCU: 0x7D69, offset: 0x1D2FF, size: 0x8, addend: 0x0, symName: __ZNSt3__128__exception_guard_exceptionsINS_29_AllocatorDestroyRangeReverseINS_9allocatorINS_12basic_stringIcNS_11char_traitsIcEENS2_IcEEEEEENS_16reverse_iteratorIPS7_EEEEE10__completeB8ue170006Ev, symObjAddr: 0xBF1C, symBinAddr: 0x100023CE4, symSize: 0xD8 }
  - { offsetInCU: 0x7D8F, offset: 0x1D325, size: 0x8, addend: 0x0, symName: __ZNSt3__128__exception_guard_exceptionsINS_29_AllocatorDestroyRangeReverseINS_9allocatorINS_12basic_stringIcNS_11char_traitsIcEENS2_IcEEEEEENS_16reverse_iteratorIPS7_EEEEED1B8ue170006Ev, symObjAddr: 0xBFF4, symBinAddr: 0x100023DBC, symSize: 0x78 }
  - { offsetInCU: 0x7DB9, offset: 0x1D34F, size: 0x8, addend: 0x0, symName: __ZNSt3__128__exception_guard_exceptionsINS_29_AllocatorDestroyRangeReverseINS_9allocatorINS_12basic_stringIcNS_11char_traitsIcEENS2_IcEEEEEENS_16reverse_iteratorIPS7_EEEEEC1B8ue170006ESC_, symObjAddr: 0xC06C, symBinAddr: 0x100023E34, symSize: 0x84 }
  - { offsetInCU: 0x7DF2, offset: 0x1D388, size: 0x8, addend: 0x0, symName: __ZNSt3__128__exception_guard_exceptionsINS_29_AllocatorDestroyRangeReverseINS_9allocatorINS_12basic_stringIcNS_11char_traitsIcEENS2_IcEEEEEENS_16reverse_iteratorIPS7_EEEEEC2B8ue170006ESC_, symObjAddr: 0xC0F0, symBinAddr: 0x100023EB8, symSize: 0xF8 }
  - { offsetInCU: 0x7E2B, offset: 0x1D3C1, size: 0x8, addend: 0x0, symName: __ZNSt3__129_AllocatorDestroyRangeReverseINS_9allocatorINS_12basic_stringIcNS_11char_traitsIcEENS1_IcEEEEEENS_16reverse_iteratorIPS6_EEEC2B8ue170006ERS7_RSA_SD_, symObjAddr: 0xC1E8, symBinAddr: 0x100023FB0, symSize: 0x20C }
  - { offsetInCU: 0x7E82, offset: 0x1D418, size: 0x8, addend: 0x0, symName: __ZNSt3__19allocatorINS_12basic_stringIcNS_11char_traitsIcEENS0_IcEEEEE9constructB8ue170006IS5_JS5_EEEvPT_DpOT0_, symObjAddr: 0xC3F4, symBinAddr: 0x1000241BC, symSize: 0xEC }
  - { offsetInCU: 0x7ED8, offset: 0x1D46E, size: 0x8, addend: 0x0, symName: __ZNSt3__112basic_stringIcNS_11char_traitsIcEENS_9allocatorIcEEEC1B8ue170006EOS5_, symObjAddr: 0xC4E0, symBinAddr: 0x1000242A8, symSize: 0x80 }
  - { offsetInCU: 0x7F11, offset: 0x1D4A7, size: 0x8, addend: 0x0, symName: __ZNSt3__112basic_stringIcNS_11char_traitsIcEENS_9allocatorIcEEEC2B8ue170006EOS5_, symObjAddr: 0xC560, symBinAddr: 0x100024328, symSize: 0xCC }
  - { offsetInCU: 0x7F4F, offset: 0x1D4E5, size: 0x8, addend: 0x0, symName: __ZNSt3__119__to_address_helperINS_16reverse_iteratorIPNS_12basic_stringIcNS_11char_traitsIcEENS_9allocatorIcEEEEEEvE6__callB8ue170006ERKS9_, symObjAddr: 0xC8E0, symBinAddr: 0x1000243F4, symSize: 0x70 }
  - { offsetInCU: 0x7F72, offset: 0x1D508, size: 0x8, addend: 0x0, symName: __ZNKSt3__116reverse_iteratorIPNS_12basic_stringIcNS_11char_traitsIcEENS_9allocatorIcEEEEEptB8ue170006Ev, symObjAddr: 0xC950, symBinAddr: 0x100024464, symSize: 0x6C }
  - { offsetInCU: 0x7F98, offset: 0x1D52E, size: 0x8, addend: 0x0, symName: __ZNSt3__128__exception_guard_exceptionsINS_29_AllocatorDestroyRangeReverseINS_9allocatorINS_12basic_stringIcNS_11char_traitsIcEENS2_IcEEEEEENS_16reverse_iteratorIPS7_EEEEED2B8ue170006Ev, symObjAddr: 0xC9BC, symBinAddr: 0x1000244D0, symSize: 0x17C }
  - { offsetInCU: 0x7FC2, offset: 0x1D558, size: 0x8, addend: 0x0, symName: __ZNKSt3__129_AllocatorDestroyRangeReverseINS_9allocatorINS_12basic_stringIcNS_11char_traitsIcEENS1_IcEEEEEENS_16reverse_iteratorIPS6_EEEclB8ue170006Ev, symObjAddr: 0xCB38, symBinAddr: 0x10002464C, symSize: 0x418 }
  - { offsetInCU: 0x7FE9, offset: 0x1D57F, size: 0x8, addend: 0x0, symName: __ZNSt3__116reverse_iteratorINS0_IPNS_12basic_stringIcNS_11char_traitsIcEENS_9allocatorIcEEEEEEEC1B8ue170006ES8_, symObjAddr: 0xD0F4, symBinAddr: 0x100024C08, symSize: 0x29C }
  - { offsetInCU: 0x8026, offset: 0x1D5BC, size: 0x8, addend: 0x0, symName: __ZNSt3__116reverse_iteratorINS0_IPNS_12basic_stringIcNS_11char_traitsIcEENS_9allocatorIcEEEEEEEppB8ue170006Ev, symObjAddr: 0xD720, symBinAddr: 0x100025234, symSize: 0x100 }
  - { offsetInCU: 0x804C, offset: 0x1D5E2, size: 0x8, addend: 0x0, symName: __ZNKSt3__116reverse_iteratorINS0_IPNS_12basic_stringIcNS_11char_traitsIcEENS_9allocatorIcEEEEEEE4baseB8ue170006Ev, symObjAddr: 0xD820, symBinAddr: 0x100025334, symSize: 0x258 }
  - { offsetInCU: 0x8078, offset: 0x1D60E, size: 0x8, addend: 0x0, symName: __ZNSt3__119__to_address_helperINS_16reverse_iteratorINS1_IPNS_12basic_stringIcNS_11char_traitsIcEENS_9allocatorIcEEEEEEEEvE6__callB8ue170006ERKSA_, symObjAddr: 0xDA78, symBinAddr: 0x10002558C, symSize: 0x70 }
  - { offsetInCU: 0x809B, offset: 0x1D631, size: 0x8, addend: 0x0, symName: __ZNKSt3__116reverse_iteratorINS0_IPNS_12basic_stringIcNS_11char_traitsIcEENS_9allocatorIcEEEEEEEptB8ue170006Ev, symObjAddr: 0xDAE8, symBinAddr: 0x1000255FC, symSize: 0x6C }
  - { offsetInCU: 0x80C1, offset: 0x1D657, size: 0x8, addend: 0x0, symName: __ZNKSt3__116reverse_iteratorINS0_IPNS_12basic_stringIcNS_11char_traitsIcEENS_9allocatorIcEEEEEEEdeB8ue170006Ev, symObjAddr: 0xDB54, symBinAddr: 0x100025668, symSize: 0x2C4 }
  - { offsetInCU: 0x80FA, offset: 0x1D690, size: 0x8, addend: 0x0, symName: __ZNSt3__116reverse_iteratorIPNS_12basic_stringIcNS_11char_traitsIcEENS_9allocatorIcEEEEEmmB8ue170006Ev, symObjAddr: 0xDE18, symBinAddr: 0x10002592C, symSize: 0x1B0 }
  - { offsetInCU: 0x8120, offset: 0x1D6B6, size: 0x8, addend: 0x0, symName: __ZNSt3__116reverse_iteratorINS0_IPNS_12basic_stringIcNS_11char_traitsIcEENS_9allocatorIcEEEEEEEC2B8ue170006ES8_, symObjAddr: 0xDFC8, symBinAddr: 0x100025ADC, symSize: 0x284 }
  - { offsetInCU: 0x815D, offset: 0x1D6F3, size: 0x8, addend: 0x0, symName: __ZNSt3__116reverse_iteratorIPNS_12basic_stringIcNS_11char_traitsIcEENS_9allocatorIcEEEEEC2B8ue170006ES7_, symObjAddr: 0xE24C, symBinAddr: 0x100025D60, symSize: 0x10C }
  - { offsetInCU: 0x8195, offset: 0x1D72B, size: 0x8, addend: 0x0, symName: __ZNSt3__114__split_bufferINS_12basic_stringIcNS_11char_traitsIcEENS_9allocatorIcEEEERNS4_IS6_EEED2Ev, symObjAddr: 0xE358, symBinAddr: 0x100025E6C, symSize: 0x16C }
  - { offsetInCU: 0x81C1, offset: 0x1D757, size: 0x8, addend: 0x0, symName: __ZNSt3__114__split_bufferINS_12basic_stringIcNS_11char_traitsIcEENS_9allocatorIcEEEERNS4_IS6_EEE5clearB8ue170006Ev, symObjAddr: 0xE4C4, symBinAddr: 0x100025FD8, symSize: 0xB4 }
  - { offsetInCU: 0x81E7, offset: 0x1D77D, size: 0x8, addend: 0x0, symName: __ZNKSt3__114__split_bufferINS_12basic_stringIcNS_11char_traitsIcEENS_9allocatorIcEEEERNS4_IS6_EEE8capacityB8ue170006Ev, symObjAddr: 0xE578, symBinAddr: 0x10002608C, symSize: 0x144 }
  - { offsetInCU: 0x820D, offset: 0x1D7A3, size: 0x8, addend: 0x0, symName: __ZNSt3__114__split_bufferINS_12basic_stringIcNS_11char_traitsIcEENS_9allocatorIcEEEERNS4_IS6_EEE17__destruct_at_endB8ue170006EPS6_, symObjAddr: 0xE6BC, symBinAddr: 0x1000261D0, symSize: 0x74 }
  - { offsetInCU: 0x8241, offset: 0x1D7D7, size: 0x8, addend: 0x0, symName: __ZNSt3__114__split_bufferINS_12basic_stringIcNS_11char_traitsIcEENS_9allocatorIcEEEERNS4_IS6_EEE17__destruct_at_endB8ue170006EPS6_NS_17integral_constantIbLb0EEE, symObjAddr: 0xE730, symBinAddr: 0x100026244, symSize: 0x224 }
  - { offsetInCU: 0x8282, offset: 0x1D818, size: 0x8, addend: 0x0, symName: __ZNKSt3__114__split_bufferINS_12basic_stringIcNS_11char_traitsIcEENS_9allocatorIcEEEERNS4_IS6_EEE9__end_capB8ue170006Ev, symObjAddr: 0xE954, symBinAddr: 0x100026468, symSize: 0x100 }
  - { offsetInCU: 0x82A8, offset: 0x1D83E, size: 0x8, addend: 0x0, symName: __ZNKSt3__117__compressed_pairIPNS_12basic_stringIcNS_11char_traitsIcEENS_9allocatorIcEEEERNS4_IS6_EEE5firstB8ue170006Ev, symObjAddr: 0xEA54, symBinAddr: 0x100026568, symSize: 0x124 }
  - { offsetInCU: 0x3B, offset: 0x1DABB, size: 0x8, addend: 0x0, symName: _.str, symObjAddr: 0x60A0, symBinAddr: 0x10002D2E0, symSize: 0x0 }
  - { offsetInCU: 0x6B, offset: 0x1DAEB, size: 0x8, addend: 0x0, symName: _.str.1, symObjAddr: 0x60C0, symBinAddr: 0x10002D300, symSize: 0x0 }
  - { offsetInCU: 0x88, offset: 0x1DB08, size: 0x8, addend: 0x0, symName: _.str.2, symObjAddr: 0x60E0, symBinAddr: 0x10002D320, symSize: 0x0 }
  - { offsetInCU: 0x2A20, offset: 0x204A0, size: 0x8, addend: 0x0, symName: __ZNSt3__1plB8ue170006IcNS_11char_traitsIcEENS_9allocatorIcEEEENS_12basic_stringIT_T0_T1_EEOS9_PKS6_, symObjAddr: 0xDD8, symBinAddr: 0x100027484, symSize: 0xF4 }
  - { offsetInCU: 0x4A2A, offset: 0x224AA, size: 0x8, addend: 0x0, symName: __ZN18FIFORequestChannelC2ENSt3__112basic_stringIcNS0_11char_traitsIcEENS0_9allocatorIcEEEENS_4SideE, symObjAddr: 0x0, symBinAddr: 0x100026724, symSize: 0xD60 }
  - { offsetInCU: 0x4A8B, offset: 0x2250B, size: 0x8, addend: 0x0, symName: __ZN18FIFORequestChannel9open_pipeENSt3__112basic_stringIcNS0_11char_traitsIcEENS0_9allocatorIcEEEEi, symObjAddr: 0xFD0, symBinAddr: 0x100027578, symSize: 0x3EC }
  - { offsetInCU: 0x4AE2, offset: 0x22562, size: 0x8, addend: 0x0, symName: __ZN18FIFORequestChannelC1ENSt3__112basic_stringIcNS0_11char_traitsIcEENS0_9allocatorIcEEEENS_4SideE, symObjAddr: 0x13BC, symBinAddr: 0x100027964, symSize: 0xBC }
  - { offsetInCU: 0x4B2B, offset: 0x225AB, size: 0x8, addend: 0x0, symName: __ZN18FIFORequestChannelD2Ev, symObjAddr: 0x1478, symBinAddr: 0x100027A20, symSize: 0x240 }
  - { offsetInCU: 0x4B57, offset: 0x225D7, size: 0x8, addend: 0x0, symName: __ZN18FIFORequestChannelD1Ev, symObjAddr: 0x1730, symBinAddr: 0x100027C60, symSize: 0x78 }
  - { offsetInCU: 0x4B83, offset: 0x22603, size: 0x8, addend: 0x0, symName: __ZN18FIFORequestChannel5creadEPvi, symObjAddr: 0x17A8, symBinAddr: 0x100027CD8, symSize: 0xEC }
  - { offsetInCU: 0x4BC7, offset: 0x22647, size: 0x8, addend: 0x0, symName: __ZN18FIFORequestChannel6cwriteEPvi, symObjAddr: 0x1894, symBinAddr: 0x100027DC4, symSize: 0xEC }
  - { offsetInCU: 0x4C0B, offset: 0x2268B, size: 0x8, addend: 0x0, symName: __ZN18FIFORequestChannel4nameEv, symObjAddr: 0x1980, symBinAddr: 0x100027EB0, symSize: 0x100 }
...
